
 Start         Length     Name                   Class
 0001:00000000 0004F43CH .text                   CODE
 0002:00000000 00000EE4H .data                   DATA
 0002:00000EE4 000008B1H .bss                    BSS


Detailed map of segments

 0001:00000000 00004E0C C=CODE     S=.text    G=(none)   M=System   ACBP=A9
 0001:00004E0C 00000174 C=CODE     S=.text    G=(none)   M=SysInit  ACBP=A9
 0001:00004F80 00000A9C C=CODE     S=.text    G=(none)   M=Windows  ACBP=A9
 0001:00005A1C 00000038 C=CODE     S=.text    G=(none)   M=Messages ACBP=A9
 0001:00005A54 000002D8 C=CODE     S=.text    G=(none)   M=SysConst ACBP=A9
 0001:00005D2C 000052A4 C=CODE     S=.text    G=(none)   M=SysUtils ACBP=A9
 0001:0000AFD0 00000040 C=CODE     S=.text    G=(none)   M=ActiveX  ACBP=A9
 0001:0000B010 00000390 C=CODE     S=.text    G=(none)   M=Consts   ACBP=A9
 0001:0000B3A0 00000540 C=CODE     S=.text    G=(none)   M=TypInfo  ACBP=A9
 0001:0000B8E0 00007633 C=CODE     S=.text    G=(none)   M=Classes  ACBP=A9
 0001:00012F14 00008963 C=CODE     S=.text    G=(none)   M=Graphics ACBP=A9
 0001:0001B878 000001C4 C=CODE     S=.text    G=(none)   M=Contnrs  ACBP=A9
 0001:0001BA3C 000000FC C=CODE     S=.text    G=(none)   M=Commctrl ACBP=A9
 0001:0001BB38 00000793 C=CODE     S=.text    G=(none)   M=MultiMon ACBP=A9
 0001:0001C2CC 00000038 C=CODE     S=.text    G=(none)   M=Imm      ACBP=A9
 0001:0001C304 00000040 C=CODE     S=.text    G=(none)   M=Math     ACBP=A9
 0001:0001C344 00000038 C=CODE     S=.text    G=(none)   M=WinSpool ACBP=A9
 0001:0001C37C 00000044 C=CODE     S=.text    G=(none)   M=Printers ACBP=A9
 0001:0001C3C0 0000031F C=CODE     S=.text    G=(none)   M=FlatSB   ACBP=A9
 0001:0001C6E0 000080D0 C=CODE     S=.text    G=(none)   M=StdCtrls ACBP=A9
 0001:000247B0 00000094 C=CODE     S=.text    G=(none)   M=Clipbrd  ACBP=A9
 0001:00024844 0000015C C=CODE     S=.text    G=(none)   M=StdActns ACBP=A9
 0001:000249A0 0000F660 C=CODE     S=.text    G=(none)   M=Controls ACBP=A9
 0001:00034000 00000E28 C=CODE     S=.text    G=(none)   M=ActnList ACBP=A9
 0001:00034E28 00001938 C=CODE     S=.text    G=(none)   M=ImgList  ACBP=A9
 0001:00036760 000061D7 C=CODE     S=.text    G=(none)   M=Menus    ACBP=A9
 0001:0003C938 0000C053 C=CODE     S=.text    G=(none)   M=Forms    ACBP=A9
 0001:0004898C 00000038 C=CODE     S=.text    G=(none)   M=ShellAPI ACBP=A9
 0001:000489C4 00000038 C=CODE     S=.text    G=(none)   M=RegStr   ACBP=A9
 0001:000489FC 00000038 C=CODE     S=.text    G=(none)   M=WinInet  ACBP=A9
 0001:00048A34 00000038 C=CODE     S=.text    G=(none)   M=UrlMon   ACBP=A9
 0001:00048A6C 00000038 C=CODE     S=.text    G=(none)   M=ShlObj   ACBP=A9
 0001:00048AA4 00000038 C=CODE     S=.text    G=(none)   M=CommDlg  ACBP=A9
 0001:00048ADC 00001C48 C=CODE     S=.text    G=(none)   M=ExtCtrls ACBP=A9
 0001:0004A724 00000038 C=CODE     S=.text    G=(none)   M=Dlgs     ACBP=A9
 0001:0004A75C 0000026D C=CODE     S=.text    G=(none)   M=Dialogs  ACBP=A9
 0001:0004A9CC 00000128 C=CODE     S=.text    G=(none)   M=UnitMil  ACBP=A9
 0001:0004AAF4 000021B5 C=CODE     S=.text    G=(none)   M=Buttons  ACBP=A9
 0001:0004CCAC 0000021C C=CODE     S=.text    G=(none)   M=Unit6    ACBP=A9
 0001:0004CEC8 00000564 C=CODE     S=.text    G=(none)   M=Unit5    ACBP=A9
 0001:0004D42C 00000614 C=CODE     S=.text    G=(none)   M=Unit4    ACBP=A9
 0001:0004DA40 000005D4 C=CODE     S=.text    G=(none)   M=Unit3    ACBP=A9
 0001:0004E014 00000CD0 C=CODE     S=.text    G=(none)   M=Unit2    ACBP=A9
 0001:0004ECE4 00000584 C=CODE     S=.text    G=(none)   M=Unit1    ACBP=A9
 0001:0004F268 000001D1 C=CODE     S=.text    G=(none)   M=Project1 ACBP=A9
 0002:00000000 000000A2 C=DATA     S=.data    G=DGROUP   M=System   ACBP=A9
 0002:000000A4 00000018 C=DATA     S=.data    G=DGROUP   M=SysInit  ACBP=A9
 0002:000000BC 0000022C C=DATA     S=.data    G=DGROUP   M=SysUtils ACBP=A9
 0002:000002E8 00000010 C=DATA     S=.data    G=DGROUP   M=TypInfo  ACBP=A9
 0002:000002F8 0000005C C=DATA     S=.data    G=DGROUP   M=Classes  ACBP=A9
 0002:00000354 000002B4 C=DATA     S=.data    G=DGROUP   M=Graphics ACBP=A9
 0002:00000608 00000004 C=DATA     S=.data    G=DGROUP   M=Printers ACBP=A9
 0002:0000060C 000000D8 C=DATA     S=.data    G=DGROUP   M=StdCtrls ACBP=A9
 0002:000006E4 0000012C C=DATA     S=.data    G=DGROUP   M=Controls ACBP=A9
 0002:00000810 00000020 C=DATA     S=.data    G=DGROUP   M=ImgList  ACBP=A9
 0002:00000830 000000EC C=DATA     S=.data    G=DGROUP   M=Menus    ACBP=A9
 0002:0000091C 0000013C C=DATA     S=.data    G=DGROUP   M=Forms    ACBP=A9
 0002:00000A58 00000014 C=DATA     S=.data    G=DGROUP   M=ExtCtrls ACBP=A9
 0002:00000A6C 00000070 C=DATA     S=.data    G=DGROUP   M=Dialogs  ACBP=A9
 0002:00000ADC 00000046 C=DATA     S=.data    G=DGROUP   M=Buttons  ACBP=A9
 0002:00001000 000004CC C=BSS      S=.bss     G=DGROUP   M=System   ACBP=A9
 0002:000014CC 00000018 C=BSS      S=.bss     G=DGROUP   M=SysInit  ACBP=A9
 0002:000014E4 00000004 C=BSS      S=.bss     G=DGROUP   M=Windows  ACBP=A9
 0002:000014E8 00000004 C=BSS      S=.bss     G=DGROUP   M=Messages ACBP=A9
 0002:000014EC 00000004 C=BSS      S=.bss     G=DGROUP   M=SysConst ACBP=A9
 0002:000014F0 00000118 C=BSS      S=.bss     G=DGROUP   M=SysUtils ACBP=A9
 0002:00001608 00000004 C=BSS      S=.bss     G=DGROUP   M=ActiveX  ACBP=A9
 0002:0000160C 00000004 C=BSS      S=.bss     G=DGROUP   M=Consts   ACBP=A9
 0002:00001610 00000004 C=BSS      S=.bss     G=DGROUP   M=TypInfo  ACBP=A9
 0002:00001614 00000038 C=BSS      S=.bss     G=DGROUP   M=Classes  ACBP=A9
 0002:0000164C 00000060 C=BSS      S=.bss     G=DGROUP   M=Graphics ACBP=A9
 0002:000016AC 00000004 C=BSS      S=.bss     G=DGROUP   M=Contnrs  ACBP=A9
 0002:000016B0 00000004 C=BSS      S=.bss     G=DGROUP   M=Commctrl ACBP=A9
 0002:000016B4 00000031 C=BSS      S=.bss     G=DGROUP   M=MultiMon ACBP=A9
 0002:000016E8 00000004 C=BSS      S=.bss     G=DGROUP   M=Imm      ACBP=A9
 0002:000016EC 00000004 C=BSS      S=.bss     G=DGROUP   M=Math     ACBP=A9
 0002:000016F0 00000004 C=BSS      S=.bss     G=DGROUP   M=WinSpool ACBP=A9
 0002:000016F4 00000004 C=BSS      S=.bss     G=DGROUP   M=Printers ACBP=A9
 0002:000016F8 00000034 C=BSS      S=.bss     G=DGROUP   M=FlatSB   ACBP=A9
 0002:0000172C 00000004 C=BSS      S=.bss     G=DGROUP   M=StdCtrls ACBP=A9
 0002:00001730 0000000C C=BSS      S=.bss     G=DGROUP   M=Clipbrd  ACBP=A9
 0002:0000173C 00000004 C=BSS      S=.bss     G=DGROUP   M=StdActns ACBP=A9
 0002:00001740 00000070 C=BSS      S=.bss     G=DGROUP   M=Controls ACBP=A9
 0002:000017B0 00000004 C=BSS      S=.bss     G=DGROUP   M=ActnList ACBP=A9
 0002:000017B4 00000004 C=BSS      S=.bss     G=DGROUP   M=ImgList  ACBP=A9
 0002:000017B8 00000010 C=BSS      S=.bss     G=DGROUP   M=Menus    ACBP=A9
 0002:000017C8 00000024 C=BSS      S=.bss     G=DGROUP   M=Forms    ACBP=A9
 0002:000017EC 00000004 C=BSS      S=.bss     G=DGROUP   M=ShellAPI ACBP=A9
 0002:000017F0 00000004 C=BSS      S=.bss     G=DGROUP   M=RegStr   ACBP=A9
 0002:000017F4 00000004 C=BSS      S=.bss     G=DGROUP   M=WinInet  ACBP=A9
 0002:000017F8 00000004 C=BSS      S=.bss     G=DGROUP   M=UrlMon   ACBP=A9
 0002:000017FC 00000004 C=BSS      S=.bss     G=DGROUP   M=ShlObj   ACBP=A9
 0002:00001800 00000004 C=BSS      S=.bss     G=DGROUP   M=CommDlg  ACBP=A9
 0002:00001804 00000004 C=BSS      S=.bss     G=DGROUP   M=ExtCtrls ACBP=A9
 0002:00001808 00000004 C=BSS      S=.bss     G=DGROUP   M=Dlgs     ACBP=A9
 0002:0000180C 0000000C C=BSS      S=.bss     G=DGROUP   M=Dialogs  ACBP=A9
 0002:00001818 00000008 C=BSS      S=.bss     G=DGROUP   M=UnitMil  ACBP=A9
 0002:00001820 00000030 C=BSS      S=.bss     G=DGROUP   M=Buttons  ACBP=A9
 0002:00001850 00000008 C=BSS      S=.bss     G=DGROUP   M=Unit6    ACBP=A9
 0002:00001858 00000008 C=BSS      S=.bss     G=DGROUP   M=Unit5    ACBP=A9
 0002:00001860 00000008 C=BSS      S=.bss     G=DGROUP   M=Unit4    ACBP=A9
 0002:00001868 00000008 C=BSS      S=.bss     G=DGROUP   M=Unit3    ACBP=A9
 0002:00001870 00000038 C=BSS      S=.bss     G=DGROUP   M=Unit2    ACBP=A9
 0002:000018A8 00000008 C=BSS      S=.bss     G=DGROUP   M=Unit1    ACBP=A9


  Address         Publics by Name

 0001:00004588       .
 0001:0000A548       .
 0002:00000060       .
 0001:000042A8       .
 0002:0000180C       .01
 0002:0000173C       .02
 0002:000016E8       .1
 0002:000016D4       .1
 0002:000014EC       .1
 0002:000017EC       .1
 0002:000014DC       .1
 0002:000016B0       .1
 0002:000014E8       .1
 0002:00001808       .1
 0002:0000160C       .1
 0002:0000181C       .1
 0002:000017F0       .1
 0002:00001800       .1
 0002:000017F8       .1
 0002:000017F4       .1
 0002:000017FC       .1
 0002:00001718       .1
 0002:000018AC       .2
 0002:000018A4       .2
 0002:0000185C       .2
 0002:00001864       .2
 0002:00001734       .2
 0002:0000186C       .2
 0002:00001854       .2
 0002:000016EC       .2
 0002:00001748       .22
 0002:0000172C       .22
 0002:00001428       .3
 0002:000014E4       .3
 0002:00001608       .3
 0002:000017B4       .3
 0002:000016F0       .3
 0002:000016F4       .3
 0002:00001820       .3
 0002:000015F8       .44
 0002:00001610       .5
 0002:000017D0       .51
 0002:00001804       .61
 0002:000017B0       .7
 0002:00001650       .81
 0002:0000161C       .84
 0002:000016AC       .9
 0002:000017C0       .9
 0001:00001830       @AbstractError
 0001:00001FB0       @AfterConstruction
 0001:000045D1       @Append
 0001:00001DE8       @AsClass
 0001:000044AA       @Assign
 0001:00001900       @AStrCmp
 0001:00001FB8       @BeforeDestruction
 0001:00001E34       @CallDynaInst
 0001:00001F58       @ClassCreate
 0001:00001FA8       @ClassDestroy
 0001:0000454C       @Close
 0001:00003350       @CopyArray
 0001:00003234       @CopyRecord
 0001:00003458       @Dispose
 0001:00002420       @DoneExcept
 0001:00003BD8       @DynArrayAsg
 0001:00003B9C       @DynArrayClear
 0001:000039DC       @DynArrayHigh
 0001:000039D4       @DynArrayLength
 0001:00003B90       @DynArraySetLength
 0001:00002514       @ExceptionHandler
 0001:00001970       @FillChar
 0001:00003228       @Finalize
 0001:00003140       @FinalizeArray
 0001:00003114       @FinalizeRecord
 0001:00001E4C       @FindDynaInst
 0001:00004525       @Flush
 0001:00001B94       @FpuInit
 0001:00001AD0       @FpuMaskInit
 0001:000016E4       @FreeMem
 0001:000016CC       @GetMem
 0001:00004E84       @GetTls
 0001:000028C8       @Halt
 0001:000027A8       @Halt0
 0001:000020C4       @HandleAnyException
 0001:00002378       @HandleFinally
 0001:000021F0       @HandleOnException
 0001:00004F14       @InitExe
 0001:00003108       @Initialize
 0001:00003074       @InitializeArray
 0001:00003048       @InitializeRecord
 0001:00002704       @InitImports
 0001:000026E8       @InitResStringImports
 0001:00004204       @IntfAddRef
 0001:000041D0       @IntfClear
 0001:000041E8       @IntfCopy
 0001:00001DD0       @IsClass
 0001:00001AA0       @isNECWindows
 0001:00002D14       @LStrAddRef
 0001:00002904       @LStrArrayClr
 0001:00002934       @LStrAsg
 0001:00002B68       @LStrCat
 0001:00002BAC       @LStrCat3
 0001:00002C20       @LStrCatN
 0001:000028E0       @LStrClr
 0001:00002C70       @LStrCmp
 0001:00002D68       @LStrCopy
 0001:00002DA8       @LStrDelete
 0001:00002B10       @LStrFromArray
 0001:00002A88       @LStrFromChar
 0001:00002A98       @LStrFromPChar
 0001:000029C8       @LStrFromPCharLen
 0001:00002AC8       @LStrFromPWChar
 0001:000029F8       @LStrFromPWCharLen
 0001:00002B04       @LStrFromString
 0001:00002B28       @LStrFromWStr
 0001:00002DF0       @LStrInsert
 0001:00002978       @LStrLAsg
 0001:00002B60       @LStrLen
 0001:00002E4C       @LStrSetLength
 0001:00002D24       @LStrToPChar
 0001:00002B3C       @LStrToString
 0001:00003444       @New
 0001:000029A4       @NewAnsiString
 0001:00002FEC       @NewWideString
 0001:00004750       @Pow10
 0001:0000187C       @PStrCmp
 0001:0000184C       @PStrNCpy
 0001:000023CC       @RaiseAgain
 0001:000023B0       @RaiseExcept
 0001:000016FC       @ReallocMem
 0001:000045C3       @ResetText
 0001:000045CA       @RewritText
 0001:00001824       @ROUND
 0001:000028D4       @RunError
 0001:000026B8       @StartExe
 0001:00002450       @TryFinallyExit
 0001:00001990       @ValLong
 0001:000039B0       @VarAddRef
 0001:00003804       @VarCast
 0001:000035AC       @VarClear
 0001:000039A8       @VarClr
 0001:000035F0       @VarCopy
 0001:00003934       @VarFromLStr
 0001:00003974       @VarFromWStr
 0001:000038F8       @VarToLStr
 0001:000046B7       @Write0Char
 0001:00004720       @Write0CString
 0001:0000467C       @Write0String
 0001:000045D8       @WriteBytes
 0001:00004709       @WriteChar
 0001:00004724       @WriteCString
 0001:000046A3       @WriteLn
 0001:00004643       @WriteSpaces
 0001:00004686       @WriteString
 0001:00002EE0       @WStrArrayClr
 0001:00002F04       @WStrAsg
 0001:00002EC8       @WStrClr
 0001:00002FD0       @WStrFromLStr
 0001:00002F28       @WStrFromPCharLen
 0001:00002FAC       @WStrFromPWCharLen
 0001:00002FE0       @WStrLen
 0001:00003004       @WStrSetLength
 0001:00001A74       @_CLenToPasStr
 0001:00001A5C       @_CToPasStr
 0001:00004500       @_Flush
 0001:0000179C       @_IOTest
 0001:00004A6A       @_lldiv
 0001:00004AE2       @_lldivo
 0001:00004B5D       @_llmod
 0001:00004BD7       @_llmodo
 0001:00004A24       @_llmul
 0001:00004A47       @_llmulo
 0001:00004C57       @_llshl
 0001:00004B14       @_lludiv
 0001:00004C09       @_llumod
 0001:00004C8F       @_llushr
 0001:00027188       AbsMin
 0001:000091F8       AbstractErrorHandler
 0002:00001018       AbstractErrorProc
 0002:00000130       AccessMode
 0001:00005360       ActivateKeyboardLayout
 0002:00001770       ActiveDrag
 0001:0000B008       ActiveX
 0001:00034E20       ActnList
 0001:00000404       AddBlockAfter
 0001:0000690C       AddExitProc
 0001:0000F810       AddFinished
 0001:00038264       AddIn
 0001:0000401C       AddModuleUnloadProc
 0001:0000400C       AddModuleUnloadProc
 0001:0000F848       AddNotFinished
 0001:00016750       AdjustColor
 0001:0004A2FC       AdjustColors
 0001:0003F704       Adjustment
 0001:00005368       AdjustWindowRectEx
 0002:000008F4       Alignments
 0002:00000690       Alignments
 0002:00000614       Alignments
 0002:00000680       Alignments
 0002:00000904       Alignments
 0002:00000A60       Alignments
 0001:00045FAC       AlignWork
 0001:0002C0BC       AlignWork
 0001:0003F130       AllocateHWnd
 0001:000068C0       AllocMem
 0002:00001420       AllocMemCount
 0002:00001424       AllocMemSize
 0001:0001B670       AllocPatternBitmap
 0002:000006EC       AnchorAlign
 0001:00006A4C       AnsiCompareText
 0001:00006CD4       AnsiLastChar
 0001:00005370       AnsiLower
 0001:00006A18       AnsiLowerCase
 0001:0000998C       AnsiLowerCaseFileName
 0001:00009954       AnsiPos
 0001:0003C76C       AnsiSameCaption
 0001:00006A84       AnsiSameText
 0001:00006AC0       AnsiStrLIComp
 0001:00009A18       AnsiStrPos
 0001:00009AB8       AnsiStrRScan
 0001:00009AE0       AnsiStrScan
 0001:0000368C       AnyChangeType
 0001:00007B18       AppendChars
 0001:00007EE0       AppendFormat
 0001:00007B7C       AppendNumber
 0001:00007B5C       AppendString
 0002:000017C8       Application
 0002:00000A50       AppVisible
 0001:000091DC       AssertErrorHandler
 0002:00001014       AssertErrorProc
 0001:0000B5FC       AssignLongStr
 0001:0000B7C0       AssignVariant
 0001:0000B650       AssignWideStr
 0002:00001474       avail
 0001:00006DD4       BackfillGetDiskFreeSpaceEx
 0001:00029A88       BackgroundClipped
 0001:0000D21C       BeginGlobalLoading
 0001:00005378       BeginPaint
 0001:0001675C       BetterSize
 0001:00038FF4       BiDiDraw
 0001:00005150       BitBlt
 0002:00000ADC       BitBtnCaptions
 0002:00001824       BitBtnGlyphs
 0002:000005BC       BitmapCanvasList
 0002:00001668       BitmapImageLock
 0002:00000938       BlockCode
 0002:0000144C       blockDescBlockList
 0002:00001450       blockDescFreeList
 0002:000002E8       BooleanIdents
 0002:00000A58       BorderStyles
 0002:000009A8       BorderStyles
 0002:0000060C       BorderStyles
 0001:0000CBAC       Bounds
 0002:0000089C       Breaks
 0002:000016A0       BrushManager
 0001:0003B578       BuildImage
 0002:00000AB0       ButtonCaptions
 0002:00000B0C       ButtonCount
 0002:00000A84       ButtonNames
 0002:00000918       Buttons
 0001:0004CC84       Buttons
 0002:00000678       ButtonStyles
 0001:00015F3C       BytesPerScanline
 0001:00016294       ByteSwapColors
 0001:000097CC       ByteToCharIndex
 0001:000097A4       ByteToCharLen
 0001:00009768       ByteType
 0001:000096F0       ByteTypeTest
 0002:000002F4       C10000
 0001:0003F06C       CalcJmpOffset
 0001:00033458       CalcSplitterPos
 0001:00005380       CallNextHookEx
 0001:00009FF8       CallTerminateProcs
 0001:00005388       CallWindowProc
 0001:00028100       CancelDrag
 0002:00001780       CanvasList
 0002:000016A4       CanvasList
 0002:00000A70       Captions
 0002:000007A4       CaptureControl
 0002:00001818       Cardauswahl
 0002:0000083C       cBooleanToItemAutoFlag
 0002:00001732       CF_COMPONENT
 0002:00001730       CF_PICTURE
 0002:000013E8       ChangeAnyProc
 0001:00026834       ChangeBiDiModeAlignment
 0001:000036F8       ChangeSourceAny
 0002:00000664       CharCases
 0002:00000634       CharCases
 0001:00005390       CharLowerBuff
 0001:00000238       CharNext
 0001:00014778       CharsetToIdent
 0001:00009890       CharToByteIndex
 0001:000098F4       CharToByteLen
 0001:00016D24       CheckBool
 0001:00002040       CheckJmp
 0001:00005398       CheckMenuItem
 0002:0000088C       Checks
 0001:0003EF7C       CheckTaskWindow
 0001:00027E30       CheckUndock
 0002:00000840       cItemAutoFlagToBoolean
 0002:00000838       cItemAutoFlagToMenu
 0002:00001624       ClassAliasList
 0001:00012EA0       Classes
 0002:00001620       ClassList
 0001:0000CBD4       ClassNotFound
 0002:000013E4       ClearAnyProc
 0001:000140F0       ClearColor
 0001:000053A0       ClientToScreen
 0001:00030E7C       ClientToWindow
 0002:000005B4       ClipboardFormats
 0001:000247EC       Clipbrd
 0001:000001D8       CloseHandle
 0001:00004F98       CloseHandle
 0002:0000102C       CmdLine
 0002:00001028       CmdShow
 0002:00000834       cMenuAutoFlagToItem
 0002:00000384       Colors
 0001:00014570       ColorToIdent
 0001:00014560       ColorToRGB
 0002:00000650       ComboBoxStyles
 0002:000017C4       CommandPool
 0001:0001BB30       Commctrl
 0001:00048AD4       CommDlg
 0001:000006E4       Commit
 0002:00001490       committedRoot
 0001:000378D4       CompareFront
 0001:00006980       CompareMem
 0001:00004FA0       CompareString
 0001:000069A0       CompareText
 0001:000101CC       ComponentCreated
 0001:00016AF4       ComputeAldusChecksum
 0001:0000B398       Consts
 0001:0001BA34       Contnrs
 0002:0000174E       ControlAtom
 0001:00033FDC       Controls
 0001:00008C98       ConvertAddr
 0001:00007C6C       ConvertEraString
 0001:00006848       ConvertError
 0001:00006860       ConvertErrorFmt
 0001:00007DD8       ConvertYearString
 0001:000039E4       CopyArray
 0001:00018DC8       CopyBitmap
 0001:00019488       CopyBitmapAsMask
 0001:00005158       CopyEnhMetaFile
 0001:0004CAAC       CopyImage
 0001:00019424       CopyPalette
 0001:0003A714       CopyToBest
 0001:0000981C       CountChars
 0002:00001680       CounterLock
 0001:00009120       CreateAssertException
 0001:000092B8       CreateAVObject
 0001:00005160       CreateBitmap
 0001:00005168       CreateBrushIndirect
 0001:00005170       CreateCompatibleBitmap
 0001:00005178       CreateCompatibleDC
 0001:0001024C       CreateComponent
 0001:00005188       CreateDIBitmap
 0001:00005180       CreateDIBSection
 0001:00004FA8       CreateEvent
 0001:00004FB0       CreateFile
 0001:000001E0       CreateFileA
 0001:00005190       CreateFontIndirect
 0001:00005198       CreateHalftonePalette
 0001:000053A8       CreateIcon
 0001:0000905C       CreateInOutError
 0001:000053B0       CreateMenu
 0001:000051A0       CreatePalette
 0001:000051A8       CreatePenIndirect
 0001:000053B8       CreatePopupMenu
 0001:000051B0       CreateSolidBrush
 0001:000162EC       CreateSystemPalette
 0001:00004FB8       CreateThread
 0001:000058B8       CreateWindow
 0001:000053C0       CreateWindowEx
 0002:000006E4       CreationControl
 0002:000006DC       CSHREDRAW
 0002:000007E0       Ctl3DStyles
 0002:00001488       curAlloc
 0002:000014F8       CurrencyDecimals
 0002:000014F4       CurrencyFormat
 0002:000014F0       CurrencyString
 0002:000009D4       CursorMap
 0002:000006F4       Cursors
 0001:00026AE0       CursorToIdent
 0002:000014F9       DateSeparator
 0001:000086B0       DateTimeToStr
 0001:00008654       DateTimeToString
 0001:00007640       DateTimeToTimeStamp
 0001:00007AA0       DayOfWeek
 0002:00000380       DDBsOnly
 0001:0003F1E4       DeallocateHWnd
 0002:00000008       DebugHook
 0002:000014F7       DecimalSeparator
 0001:00007A80       DecodeDate
 0001:00007768       DecodeTime
 0001:00000778       Decommit
 0001:00000D94       DecommitFree
 0002:00001464       decommittedRoot
 0001:00041B38       Default
 0001:00046A58       Default
 0002:00000000       Default8087CW
 0002:000006E8       DefaultDockTreeClass
 0002:00000584       DefBrushData
 0002:00000354       DefFontData
 0001:000053C8       DefFrameProc
 0002:000001E0       DefLongDayNames
 0002:00000194       DefLongMonthNames
 0001:000053D0       DefMDIChildProc
 0002:00000564       DefPenData
 0002:000001C4       DefShortDayNames
 0002:00000164       DefShortMonthNames
 0001:000053D8       DefWindowProc
 0001:00000434       DeleteBlock
 0001:000003A4       DeleteCriticalSection
 0001:00004FC0       DeleteCriticalSection
 0001:000051B8       DeleteDC
 0001:000051C0       DeleteEnhMetaFile
 0001:00000BDC       DeleteFree
 0001:000053E0       DeleteMenu
 0001:000051C8       DeleteObject
 0001:00018984       DeselectBitmap
 0001:000053E8       DestroyCursor
 0001:000053F0       DestroyIcon
 0001:0004CBB4       DestroyLocals
 0001:000053F8       DestroyMenu
 0001:00005400       DestroyWindow
 0001:0004A9B0       Dialogs
 0002:000005C0       DIBPalSizes
 0002:00000050       dig
 0001:0003EDD0       DisableTaskWindows
 0001:00005408       DispatchMessage
 0001:00044DD4       DispatchShortCut
 0001:0000682C       DivMod
 0001:0004A754       Dlgs
 0001:0002BF68       DoAlign
 0001:00045E60       DoAlign
 0001:0002FE4C       DoCalcConstraints
 0002:00001778       DockSiteList
 0001:0003B2A4       DoClick
 0001:0002D434       DoControlMsg
 0001:0003ED80       DoDisableWindow
 0001:00027754       DoDragOver
 0001:00007800       DoEncodeDate
 0001:00007680       DoEncodeTime
 0001:000068E0       DoExitProc
 0001:000319B8       DoFindControlZone
 0001:0003EEBC       DoFindWindow
 0001:00031F1C       DoFindZone
 0001:00031A3C       DoForEach
 0001:000332B0       DoGetNextLimit
 0001:0003ED48       DoneApplication
 0001:00033E08       DoneControls
 0001:0000962C       DoneExceptions
 0001:000432B4       DoNestedActivation
 0001:0002BBCC       DoPosition
 0001:00045CB0       DoPosition
 0001:00032930       DoPrune
 0001:00049A74       DoRect
 0001:00032DE0       DoSaveZone
 0001:00032FE4       DoSetNewBounds
 0002:000002F0       DotSep
 0002:00000B10       DownStyles
 0001:0002A918       DoWrite
 0001:00017AD0       DoWrite
 0001:000361EC       DoWrite
 0001:0000DF90       DoWrite
 0001:00016F7C       DoWrite
 0002:0000175C       DragCapture
 0002:00001750       DragControl
 0001:00027EA0       DragDone
 0001:00027704       DragFindTarget
 0001:000276D8       DragFindWindow
 0002:00001758       DragFreeObject
 0002:00001774       DragImageList
 0001:00027AF8       DragInit
 0001:00027C68       DragInitControl
 0001:0002765C       DragMessage
 0002:00001754       DragObject
 0002:00001768       DragSaveCursor
 0002:00001760       DragStartPos
 0002:0000176C       DragThreshold
 0001:00027824       DragTo
 0001:00046A94       DrawAppIcon
 0001:00032494       DrawCloseButton
 0001:00005410       DrawEdge
 0001:00005418       DrawFocusRect
 0001:00005420       DrawFrameControl
 0001:000324EC       DrawGrabberLine
 0001:00005428       DrawIcon
 0001:00005430       DrawIconEx
 0002:00000818       DrawingStyles
 0001:00005438       DrawMenuBar
 0001:0003C57C       DrawMenuItem
 0001:00005440       DrawText
 0001:00015DBC       DupBits
 0001:000039FC       DynArrayClear
 0001:00003A04       DynArraySetLength
 0001:0004E804       echo_dauerlauf
 0001:0004E49C       echo_durchlauf
 0002:000008FC       EdgeStyle
 0002:000007D0       EdgeStyles
 0001:00009030       EHeapException.FreeInstance
 0002:00001410       EmptyParam
 0002:000000BC       EmptyStr
 0001:00005448       EnableMenuItem
 0002:00000894       Enables
 0001:00005450       EnableScrollBar
 0001:0003EE84       EnableTaskWindows
 0001:00005458       EnableWindow
 0001:000078C8       EncodeDate
 0001:000076F0       EncodeTime
 0001:0000D2AC       EndGlobalLoading
 0001:00005460       EndPaint
 0001:00000394       EnterCriticalSection
 0001:00004FC8       EnterCriticalSection
 0001:00004FD0       EnumCalendarInfoA
 0002:000016D0       EnumDisplayMonitors
 0001:000088E4       EnumEraNames
 0001:00008920       EnumEraYearOffsets
 0001:00045410       EnumMonitorsProc
 0001:00005468       EnumThreadWindows
 0001:0000FBAC       EnumValue
 0001:00005470       EnumWindows
 0001:00005478       EqualRect
 0002:000015BC       EraNames
 0002:000015D8       EraYearOffsets
 0002:00000048       errCaption
 0001:0000F494       Error
 0001:00037624       Error
 0001:00001758       Error
 0002:0000103C       ErrorAddr
 0001:000090DC       ErrorHandler
 0002:000001FC       ErrorMap
 0002:00001004       ErrorProc
 0001:00008C80       ExceptAddr
 0002:00001008       ExceptClsProc
 0001:00009550       ExceptHandler
 0001:00008EA4       Exception.Create
 0001:00008EE0       Exception.CreateFmt
 0001:00008F60       Exception.CreateRes
 0001:00008F9C       Exception.CreateResFmt
 0002:00001010       ExceptionClass
 0001:00008CA4       ExceptionErrorMessage
 0002:00000234       ExceptMap
 0001:00008C68       ExceptObject
 0002:0000100C       ExceptObjProc
 0002:00001000       ExceptProc
 0001:000051D0       ExcludeClipRect
 0002:00001034       ExitCode
 0001:00002774       ExitDll
 0002:00001038       ExitProc
 0001:00000240       ExitProcess
 0002:0000012C       ExitProcList
 0001:0004A71C       ExtCtrls
 0002:000006BC       ExtendSelects
 0001:00006D8C       ExtractFileExt
 0001:00006D54       ExtractFileName
 0001:000051D8       ExtTextOut
 0002:00001738       FClipboard
 0002:00001880       FID
 0001:00006CCC       FileClose
 0001:00006C44       FileCreate
 0002:000005B8       FileFormats
 0002:00001046       FileMode
 0001:00006C04       FileOpen
 0001:00006C68       FileRead
 0002:000002F8       FilerSignature
 0001:00006CC0       FileSeek
 0001:00006C94       FileWrite
 0001:00000CC4       FillAfterGap
 0001:00000C70       FillBeforeGap
 0001:00000D5C       FillerSizeAfterGap
 0001:00000CEC       FillerSizeBeforeGap
 0001:00005480       FillRect
 0002:00000B18       FillStyles
 0001:0001C2CC       Finalization
 0001:0004DA08       Finalization
 0001:0001C28C       Finalization
 0001:00048A34       Finalization
 0001:000489FC       Finalization
 0001:0001BB00       Finalization
 0001:000489C4       Finalization
 0001:00048A6C       Finalization
 0001:0001C37C       Finalization
 0001:00036728       Finalization
 0001:0004D3F4       Finalization
 0001:0001C30C       Finalization
 0001:000059E4       Finalization
 0001:00048AA4       Finalization
 0001:00005A1C       Finalization
 0001:00005CF4       Finalization
 0001:00034DF0       Finalization
 0001:0004ECAC       Finalization
 0001:00024778       Finalization
 0001:00004CAC       Finalization
 0001:0001B6A8       Finalization
 0001:0001BA04       Finalization
 0001:0004898C       Finalization
 0001:00012DE8       Finalization
 0001:00048918       Finalization
 0001:0000B888       Finalization
 0001:00004F48       Finalization
 0001:0004A724       Finalization
 0001:0003C868       Finalization
 0001:00033F88       Finalization
 0001:00024968       Finalization
 0001:0004CC4C       Finalization
 0001:0004A954       Finalization
 0001:0001C6A0       Finalization
 0001:0004F230       Finalization
 0001:0004CE90       Finalization
 0001:0000B368       Finalization
 0001:0000AFD8       Finalization
 0001:0000AE10       Finalization
 0001:0004F268       Finalization
 0001:0001C344       Finalization
 0001:000247B0       Finalization
 0001:0004AABC       Finalization
 0001:0004A6EC       Finalization
 0001:0004DFDC       Finalization
 0001:000039F4       FinalizeArray
 0001:0003B0B8       Find
 0001:00003C54       FindBS
 0001:0000CCF0       FindClass
 0001:00003C28       FindClassHInstance
 0001:00000250       FindClose
 0001:00000C40       FindCommitted
 0001:00026900       FindControl
 0001:00032124       FindControlAtPos
 0001:0002814C       FindDragTarget
 0001:000103FC       FindExistingComponent
 0001:00000258       FindFirstFile
 0001:0003EFC8       FindGlobalComponent
 0002:00001618       FindGlobalComponent
 0001:00003C00       FindHInstance
 0001:0000D090       FindIdentToInt
 0002:00001814       FindMsg
 0001:0000F748       FindNestedComponent
 0001:000375F0       FindPopupControl
 0001:00004FD8       FindResource
 0001:00003C30       FindResourceHInstance
 0001:000482C8       FindScanline
 0001:0003EF20       FindTopMostWindow
 0001:000112CC       FindUniqueName
 0001:00028118       FindVCLWindow
 0001:00005488       FindWindow
 0001:000025F8       FInitUnits
 0001:00018D7C       FixupBitFields
 0002:00001894       FktRead
 0002:00001895       FktWrite
 0002:0000090C       Flags
 0002:00001604       FLanguages
 0001:0001C6D0       FlatSB
 0002:000016F8       FlatSB_EnableScrollBar
 0002:00001704       FlatSB_GetScrollInfo
 0002:00001708       FlatSB_GetScrollPos
 0002:00001700       FlatSB_GetScrollRange
 0002:00001710       FlatSB_SetScrollInfo
 0002:0000170C       FlatSB_SetScrollPos
 0001:0001C3C0       FlatSB_SetScrollProp
 0002:00001714       FlatSB_SetScrollRange
 0002:000016FC       FlatSB_ShowScrollBar
 0001:0000AB0D       FloatToDecimal
 0001:0000A56A       FloatToText
 0001:0000A83A       FloatToTextFmt
 0002:00000158       FMSecsPerDay
 0001:00007578       FmtStr
 0002:00000924       FocusCount
 0002:00000920       FocusMessages
 0002:000004D4       FontCharsets
 0002:00001698       FontManager
 0001:0003EF9C       ForegroundTask
 0002:000018A8       Form1
 0002:00001870       Form2
 0002:00001868       Form3
 0002:00001860       Form4
 0002:00001858       Form5
 0002:00001850       Form6
 0001:00007564       Format
 0002:00000160       Format
 0001:00007104       FormatBuf
 0001:000070F8       FormatClearStr
 0001:0000708C       FormatError
 0002:00000150       FormatErrorStrs
 0001:00004FE0       FormatMessage
 0001:000070E4       FormatVarToStr
 0001:0004896C       Forms
 0001:00004750       FPower10
 0002:00000608       FPrinter
 0001:00049B38       Frame3D
 0001:00005490       FrameRect
 0001:0000A1E4       FreeAndNil
 0001:000009AC       FreeCommitted
 0001:00000EB4       FreeCurAlloc
 0001:0002820C       FreeDeviceContext
 0001:000282C8       FreeDeviceContexts
 0001:00012D74       FreeIntConstList
 0001:00000260       FreeLibrary
 0001:00004FE8       FreeLibrary
 0001:000188D8       FreeMemoryContexts
 0001:0003F10C       FreeObjectInstance
 0001:00004FF0       FreeResource
 0001:0000062C       FreeSpace
 0001:0000A014       FreeTerminateProcs
 0001:00011E30       FreeThreadWindow
 0001:00015DAC       GDICheck
 0001:00015D04       GDIError
 0001:00005498       GetActiveWindow
 0001:00046334       GetAnimation
 0001:000051E0       GetBitmapBits
 0001:000003AC       GetBlockDesc
 0001:000051E8       GetBrushOrgEx
 0001:000054A0       GetCapture
 0001:00026B88       GetCaptureControl
 0001:0000CC40       GetClass
 0001:000054A8       GetClassInfo
 0001:000054B0       GetClientRect
 0001:000054B8       GetClipboardData
 0001:00017740       GetClipboardFormats
 0001:000051F0       GetClipBox
 0001:00000348       GetCmdShow
 0001:0003500C       GetColor
 0001:00000268       GetCommandLine
 0001:000007F8       GetCommitted
 0001:00000888       GetCommittedAt
 0001:0002CF78       GetControlAtPos
 0001:00007BC8       GetCount
 0001:00004FF8       GetCPInfo
 0001:000051F8       GetCurrentPositionEx
 0001:00005000       GetCurrentProcessId
 0001:00005008       GetCurrentThreadId
 0001:000042A0       GetCurrentThreadId
 0001:00005834       GetCurrentTime
 0001:000054C0       GetCursor
 0001:000482D8       GetCursorHeightMargin
 0001:000054C8       GetCursorPos
 0001:00007BF4       GetDate
 0001:00005010       GetDateFormat
 0001:000054D0       GetDC
 0001:000054D8       GetDCEx
 0001:00005200       GetDCOrgEx
 0001:0001B2B4       GetDefFontCharSet
 0001:000054E0       GetDesktopWindow
 0001:00005218       GetDeviceCaps
 0001:00016D0C       GetDIB
 0001:00005208       GetDIBColorTable
 0001:00005210       GetDIBits
 0001:00016C54       GetDIBSizes
 0001:00015F1C       GetDInColors
 0001:00005018       GetDiskFreeSpaceA
 0002:00000128       GetDiskFreeSpaceEx
 0001:00033370       GetDockAlign
 0001:000274B0       GetDockSiteAtPos
 0001:00027790       GetDropCtl
 0001:00001E04       GetDynaMethod
 0001:00005220       GetEnhMetaFileBits
 0001:00005228       GetEnhMetaFileHeader
 0001:00005230       GetEnhMetaFilePaletteEntries
 0001:0000B3D8       GetEnumNameValue
 0001:0000B424       GetEnumValue
 0001:00008998       GetEraNamesAndYearOffsets
 0001:000092A4       GetExceptionClass
 0001:00009484       GetExceptionObject
 0001:0000CD10       GetFieldClass
 0001:0000CBC8       GetFieldClassTable
 0001:00017720       GetFileFormats
 0001:000001F0       GetFileSize
 0001:000001E8       GetFileType
 0001:000054E8       GetFocus
 0001:00014798       GetFontData
 0001:000054F0       GetForegroundWindow
 0001:00009BD8       GetFormatSettings
 0001:00013DEC       GetHashCode
 0001:00046120       GetHint
 0001:00046150       GetHintControl
 0001:0003C708       GetHotkey
 0001:000054F8       GetIconInfo
 0001:00005510       GetKeyboardLayout
 0001:00005518       GetKeyboardLayoutList
 0001:00005520       GetKeyboardState
 0001:00001A98       GetKeyboardType
 0001:00005500       GetKeyNameText
 0001:00005508       GetKeyState
 0001:00005528       GetLastActivePopup
 0001:00000270       GetLastError
 0001:00005020       GetLastError
 0001:0000875C       GetLocaleChar
 0001:00005030       GetLocaleInfo
 0001:00000278       GetLocaleInfo
 0001:00008710       GetLocaleStr
 0001:00005028       GetLocalTime
 0001:00026B44       GetLongHint
 0001:00005530       GetMenu
 0001:00043C20       GetMenuHelpContext
 0001:00005538       GetMenuItemCount
 0001:00005540       GetMenuItemID
 0001:00005548       GetMenuItemInfo
 0001:000399E4       GetMenuSize
 0001:00005550       GetMenuState
 0001:00005558       GetMenuString
 0001:00005038       GetModuleFileName
 0001:00000280       GetModuleFileName
 0001:00004E0C       GetModuleFileName
 0001:00000288       GetModuleHandle
 0001:00005040       GetModuleHandle
 0001:00004E14       GetModuleHandle
 0002:000016CC       GetMonitorInfo
 0002:000016C4       GetMonitorInfoA
 0002:000016C8       GetMonitorInfoW
 0001:000087C0       GetMonthDayNames
 0001:00005560       GetNextWindow
 0001:00005238       GetObject
 0001:0000B4A4       GetOrdProp
 0001:00005240       GetPaletteEntries
 0001:00005568       GetParent
 0001:0003F358       GetParentForm
 0001:00005248       GetPixel
 0001:00000290       GetProcAddress
 0001:00005048       GetProcAddress
 0001:00005570       GetProp
 0001:0000B438       GetPropInfo
 0001:0003F818       GetRealScrollPosition
 0001:00034FEC       GetRGBColor
 0001:00005578       GetScrollInfo
 0001:00005580       GetScrollPos
 0001:00005588       GetScrollRange
 0001:00026B00       GetShortHint
 0001:00000550       GetSpace
 0001:000005B4       GetSpaceAt
 0001:0003767C       GetSpecialName
 0001:00000298       GetStartupInfo
 0001:000001F8       GetStdHandle
 0001:00005250       GetStockObject
 0001:00005590       GetSubMenu
 0001:00005598       GetSysColor
 0001:00005050       GetSystemInfo
 0001:000055A0       GetSystemMenu
 0002:000016B4       GetSystemMetrics
 0001:000055A8       GetSystemMetrics
 0001:00005258       GetSystemPaletteEntries
 0001:00005260       GetTextExtentPoint32
 0001:00005268       GetTextMetrics
 0001:000002A0       GetThreadLocale
 0001:00005058       GetThreadLocale
 0001:00005060       GetTickCount
 0001:00007C2C       GetTime
 0001:00046844       GetTopMostWindows
 0001:00026C90       GetTopParent
 0001:000055B0       GetTopWindow
 0001:0000B3CC       GetTypeData
 0001:00005068       GetVersion
 0001:00005070       GetVersionEx
 0001:000055B8       GetWindow
 0001:000055C0       GetWindowDC
 0001:000055C8       GetWindowLong
 0001:00005278       GetWindowOrgEx
 0001:000055D0       GetWindowPlacement
 0001:000055D8       GetWindowRect
 0001:000055E0       GetWindowText
 0001:000055E8       GetWindowThreadProcessId
 0001:00005270       GetWinMetaFileBits
 0001:00005078       GlobalAddAtom
 0001:00005080       GlobalAlloc
 0001:00005840       GlobalAllocPtr
 0001:00005088       GlobalDeleteAtom
 0002:0000162C       GlobalFixupList
 0001:0000F890       GlobalFixupReferences
 0001:00005090       GlobalFree
 0001:0000586C       GlobalFreePtr
 0001:000050A0       GlobalHandle
 0001:00005098       GlobalLock
 0002:00001614       GlobalNameSpace
 0001:000050A8       GlobalReAlloc
 0001:00005850       GlobalReAllocPtr
 0001:000050B0       GlobalUnlock
 0002:00000B08       GlyphCache
 0001:0001B77C       Graphics
 0001:00010AC4       HandleException
 0001:000206C8       HasPopup
 0002:00000004       HeapAllocFlags
 0002:00001430       heapErrorCode
 0002:00001434       heapLock
 0002:00001810       HelpMsg
 0002:00000124       HexDisplayPrefix
 0002:00000640       HideSelections
 0002:000014D8       HInstance
 0002:000017E0       HintDoneEvent
 0001:00046220       HintGetMsgHook
 0002:000017E4       HintHook
 0001:000461C4       HintMouseThread
 0002:000017E8       HintThread
 0002:000017DC       HintThreadID
 0001:00046170       HintTimerProc
 0002:0000091C       HintWindowClass
 0001:00046264       HookHintHooks
 0001:000058EC       HwndMSWheel
 0002:000008B0       IBreaks
 0002:000008BC       IChecks
 0002:000008C4       IDefaults
 0001:00014788       IdentToCharset
 0001:00014580       IdentToColor
 0001:00026AF0       IdentToCursor
 0001:0000D114       IdentToInt
 0002:000008CC       IEnables
 0001:0003A6E4       IfHotkeyAvailable
 0002:0000188C       IFKAdress
 0002:0000189C       IFKCount
 0001:0004AA24       IFKFound
 0002:00001898       IFKOnline
 0002:000018A0       IFKOnlineIndex
 0001:0001BA54       ImageList_Add
 0001:0001BA74       ImageList_AddIcon
 0001:0001BAA0       ImageList_BeginDrag
 0001:0001BA3C       ImageList_Create
 0001:0001BA44       ImageList_Destroy
 0001:0001BAB0       ImageList_DragEnter
 0001:0001BAB8       ImageList_DragLeave
 0001:0001BAC0       ImageList_DragMove
 0001:0001BAD0       ImageList_DragShowNolock
 0001:0001BA80       ImageList_Draw
 0001:0001BA90       ImageList_DrawEx
 0001:0001BAA8       ImageList_EndDrag
 0001:0001BA6C       ImageList_GetBkColor
 0001:0001BAD8       ImageList_GetDragImage
 0001:0001BAF0       ImageList_GetIconSize
 0001:0001BA4C       ImageList_GetImageCount
 0001:0001BAE0       ImageList_Read
 0001:0001BA98       ImageList_Remove
 0001:0001BA88       ImageList_Replace
 0001:0001BA5C       ImageList_ReplaceIcon
 0001:0001BA64       ImageList_SetBkColor
 0001:0001BAC8       ImageList_SetDragCursorImage
 0001:0001BAF8       ImageList_SetIconSize
 0001:0001BAE8       ImageList_Write
 0002:00000828       Images
 0001:00036758       ImgList
 0001:0001C2FC       Imm
 0002:00000804       IMM32DLL
 0001:00033DF4       Imm32IsIME
 0002:0000015C       IMSecsPerDay
 0001:000055F0       InflateRect
 0001:00000A38       InitAllocator
 0001:0001BB38       InitAnApi
 0002:000016DC       InitApis
 0001:0000D320       InitComponent
 0002:000014A0       InitContext
 0001:00033E7C       InitControls
 0001:0003F048       InitCtl3D
 0001:0001B2F8       InitDefFontData
 0001:0000A034       InitDriveSpacePtr
 0001:00009560       InitExceptions
 0001:0001C41C       InitFlatSB
 0001:0004A800       InitGlobals
 0001:00016B0C       InitializeBitmapInfoHeader
 0001:0000038C       InitializeCriticalSection
 0001:000050B8       InitializeCriticalSection
 0002:0000142C       initialized
 0001:0001C3F4       InitializeFlatSB
 0001:00004EC8       InitializeModule
 0001:00033A94       InitIMM32
 0001:0000D3C8       InitInheritedComponent
 0001:0001C220       InitMultiMonStubs
 0001:00009698       InitPlatformId
 0002:00001030       InitProc
 0001:0001B27C       InitScreenLogPixels
 0001:00009B20       InitSysLocale
 0001:00004E34       InitThreadTLS
 0001:00002658       InitUnits
 0001:00026848       InitWndProc
 0002:000007B0       InnerStyles
 0002:0000104C       Input
 0001:0002BB6C       InsertBefore
 0001:00045C50       InsertBefore
 0001:00000E2C       InsertFree
 0001:0003A798       InsertHotkeyFarEastFormat
 0001:000055F8       InsertMenu
 0001:00005600       InsertMenuItem
 0002:000017D4       InstBlockList
 0002:000017D8       InstFreeList
 0002:00001628       IntConstList
 0002:000006C4       IntegralHeights
 0001:00000340       InterlockedDecrement
 0001:00000338       InterlockedIncrement
 0001:0000793C       InternalDecodeDate
 0001:00013D78       InternalDeletePalette
 0001:00000CA0       InternalFreeMem
 0001:00016C5C       InternalGetDIB
 0001:00016BF0       InternalGetDIBSizes
 0001:0000D198       InternalReadComponentRes
 0001:00005280       IntersectClipRect
 0001:00005608       IntersectRect
 0001:00006B74       IntToHex
 0001:0000D154       IntToIdent
 0001:00006B44       IntToStr
 0001:00005610       InvalidateRect
 0001:00015C8C       InvalidBitmap
 0001:00015C74       InvalidGraphic
 0001:00015C98       InvalidIcon
 0001:00015CA4       InvalidMetafile
 0001:00015C5C       InvalidOperation
 0002:00001600       InvalidPointer
 0001:00001CBC       InvokeImplGetter
 0001:000017CC       IOResult
 0002:000008EC       IOwnerDraw
 0002:000008D4       IRadios
 0002:000008E4       IRTL
 0001:0003F2E8       IsAccel
 0001:0003B858       IsAccelChar
 0001:00027268       IsBeforeTargetWindow
 0001:00005618       IsChild
 0002:00001044       IsConsole
 0001:000276B4       IsDelphiHandle
 0001:00005620       IsDialogMessage
 0002:000008DC       ISeparators
 0001:0000AFD0       IsEqualIID
 0001:00005628       IsIconic
 0001:0003B8B4       IsInitialChar
 0001:000077C4       IsLeapYear
 0002:00001024       IsLibrary
 0002:00001045       IsMultiThread
 0001:00005630       IsRectEmpty
 0001:0002746C       IsSiteChildOfClient
 0001:00006AE0       IsValidIdent
 0001:00005638       IsWindow
 0001:00005640       IsWindowEnabled
 0001:00005648       IsWindowVisible
 0001:00005650       IsZoomed
 0001:00037A48       Iterate
 0001:00037AA8       IterateMenus
 0002:0000000C       JITEnable
 0001:0003F29C       KeyboardStateToShiftState
 0001:0003F260       KeyDataToShiftState
 0001:0003F20C       KeysToShiftState
 0001:00005658       KillTimer
 0001:00006D04       LastDelimiter
 0002:00000104       LeadBytes
 0001:000050C0       LeaveCriticalSection
 0001:0000039C       LeaveCriticalSection
 0002:00000014       LibModuleList
 0001:00005288       LineTo
 0001:00028194       ListAdd
 0001:000281BC       ListRemove
 0002:000015F4       ListSeparator
 0001:00005660       LoadBitmap
 0001:00005668       LoadCursor
 0001:00005670       LoadIcon
 0001:00005678       LoadKeyboardLayout
 0001:000050C8       LoadLibrary
 0001:000002A8       LoadLibraryEx
 0001:000050D0       LoadResource
 0001:00003E10       LoadResourceModule
 0001:00004178       LoadResString
 0001:00005680       LoadString
 0001:000002B0       LoadString
 0001:0000036C       LocalAlloc
 0001:00004E1C       LocalAlloc
 0001:00000374       LocalFree
 0001:00008784       LocalGetLocaleStr
 0001:000050D8       LockResource
 0002:00001500       LongDateFormat
 0002:00001594       LongDayNames
 0002:00001548       LongMonthNames
 0002:00001514       LongTimeFormat
 0002:00001884       LoopCounter
 0001:000002B8       lstrcpy
 0001:00005148       lstrcpy
 0001:000002C0       lstrcpyn
 0001:000002C8       lstrlen
 0002:0000101C       MainInstance
 0002:00001020       MainThreadID
 0001:000003FC       MakeEmpty
 0001:00002724       MakeErrorMessage
 0002:000007F0       MakeLast
 0001:00005828       MakeLong
 0001:0003F074       MakeObjectInstance
 0001:00005880       MakeROP4
 0001:00009224       MapException
 0001:00002474       MapToRunError
 0001:00005688       MapVirtualKey
 0001:00005690       MapWindowPoints
 0002:00000810       Mask
 0001:00005290       MaskBlt
 0001:0001C33C       Math
 0001:0001C304       Max
 0001:00041B84       MaximizedChildren
 0002:0000001C       MemoryManager
 0002:00000844       MenuKeyCaps
 0001:0003C8D8       Menus
 0001:0000044C       MergeBlockAfter
 0001:00000F00       MergeCommit
 0001:00005698       MessageBox
 0001:00000248       MessageBox
 0001:00005A4C       Messages
 0001:000332A8       Min
 0001:0000DA28       Min
 0001:0002B498       MinVar
 0002:000016E4       MMAvailable
 0002:00000808       ModeMap
 0001:0004362C       ModifySystemMenu
 0002:000000A4       Module
 0002:000014CD       ModuleIsCpp
 0002:000014CC       ModuleIsLib
 0001:00012DE0       ModuleUnload
 0002:00000018       ModuleUnloadList
 0002:000016C0       MonitorFromPoint
 0002:000016BC       MonitorFromRect
 0002:000016B8       MonitorFromWindow
 0002:000000D4       MonthDays
 0002:00001740       Mouse
 0001:000017E4       Move
 0001:00005298       MoveToEx
 0001:000281DC       MoveWindowOrg
 0001:000050E0       MulDiv
 0001:000002D0       MultiByteToWideChar
 0002:000006CC       MultiColumns
 0001:0001C2BC       MultiMon
 0002:000006B4       MultiSelects
 0002:000014F5       NegCurrFormat
 0001:00000F8C       NewCommit
 0001:00000FB8       NewCommitAt
 0002:00000B20       NewState
 0002:00001744       NewStyleControls
 0002:000002FC       NilMethod
 0002:00000010       NoErrMsg
 0001:00038774       NormalDraw
 0001:0000202C       NotifyAnyExcept
 0001:00002004       NotifyExcept
 0001:00002060       NotifyExceptFinally
 0001:0000D27C       NotifyGlobalLoading
 0001:0000409C       NotifyModuleUnload
 0001:00001FE4       NotifyNonDelphiException
 0001:00002018       NotifyOnExcept
 0001:00001FC8       NotifyReRaise
 0001:00002088       NotifyTerminate
 0001:000020A4       NotifyUnhandled
 0001:00007AC8       Now
 0001:0003B294       NthParentOf
 0002:00001400       Null
 0002:00000648       OEMConverts
 0001:000056A0       OemToAnsi
 0001:000056A8       OffsetRect
 0001:000034F4       OleStrToStrVar
 0002:000007E8       OrientArray
 0002:000007C0       OuterStyles
 0002:000015FC       OutOfMemory
 0001:00015CB0       OutOfResources
 0002:00001218       Output
 0001:00024328       PaintListBox
 0002:000005C8       Pal16
 0001:0001415C       PaletteChanged
 0001:0001649C       PaletteFromDIBColorTable
 0001:00016540       PaletteToDIBColorTable
 0002:000005C4       PalSize
 0001:00031660       ParentNotLast
 0002:00000624       Passwords
 0001:000052A0       PatBlt
 0002:000016A8       PatternManager
 0001:0004AA14       PCI_DriverClose
 0001:0004A9D4       PCI_DriverOpen
 0001:0004AA04       PCI_ErrorString
 0001:0004A9FC       PCI_FctCodeSnd
 0001:0004A9DC       PCI_IfkOnline
 0001:0004A9E4       PCI_IfkRead
 0001:0004A9EC       PCI_IfkWrite
 0001:0004AA1C       PCI_MilBusRead
 0001:0004AA0C       PCI_MilBusWrite
 0001:0004A9CC       PCI_PCIcardCount
 0001:0004A9F4       PCI_PCIcardReset
 0001:000056B0       PeekMessage
 0002:0000169C       PenManager
 0002:00000594       PenModes
 0002:00000574       PenStyles
 0001:000052A8       PlayEnhMetaFile
 0001:0000CB78       Point
 0001:000058A0       PointToSmallPoint
 0001:000052B0       Polyline
 0002:000017B8       PopupList
 0001:000056B8       PostMessage
 0001:000056C0       PostQuitMessage
 0001:0001C3B8       Printers
 0001:00044BD4       ProcessExecute
 0001:0003F518       ProcessHorz
 0001:00044CD4       ProcessUpdate
 0001:0003F584       ProcessVert
 0001:0004F400       Project1
 0001:0000FBA0       PropertyNotFound
 0001:00010BC4       PropPathError
 0002:00000974       Props
 0001:0000FB94       PropValueError
 0001:000056C8       PtInRect
 0002:0000177C       QualifyingSites
 0001:000091CC       RaiseAssertException
 0001:00000200       RaiseException
 0001:00009F50       RaiseLastWin32Error
 0001:0000174C       RaiseList
 0002:00001040       RandSeed
 0001:00032244       ReadControlName
 0001:0000FB7C       ReadError
 0001:000050E8       ReadFile
 0001:00000208       ReadFile
 0001:000167EC       ReadIcon
 0002:00001878       ReadMilBusTimeOutC
 0002:0000062C       ReadOnlys
 0001:00010E3C       ReadVariantProp
 0001:000052B8       RealizePalette
 0001:000101EC       Recover
 0001:0000CB90       Rect
 0001:000052C8       Rectangle
 0001:000052C0       RectVisible
 0002:000013EC       RefAnyProc
 0001:00004F80       RegCloseKey
 0001:000002D8       RegCloseKey
 0001:000056D0       RegisterClass
 0001:0000CDDC       RegisterClass
 0001:0000CED8       RegisterClasses
 0001:000056D8       RegisterClipboardFormat
 0001:000275FC       RegisterDockSite
 0001:0000D064       RegisterIntegerConsts
 0001:000040F8       RegisterModule
 0001:000056E0       RegisterWindowMessage
 0001:000002E0       RegOpenKeyEx
 0001:00004F88       RegOpenKeyEx
 0001:000002E8       RegQueryValueEx
 0001:00004F90       RegQueryValueEx
 0001:000489F4       RegStr
 0001:000056E8       ReleaseCapture
 0001:000056F0       ReleaseDC
 0002:00001484       remBytes
 0001:000004C0       RemoveBlock
 0001:0000FA4C       RemoveFixupReferences
 0001:0000FAF8       RemoveFixups
 0001:0000FDD0       RemoveGlobalFixup
 0001:000056F8       RemoveMenu
 0001:00004014       RemoveModuleUnloadProc
 0001:0000403C       RemoveModuleUnloadProc
 0001:00005700       RemoveProp
 0001:00001438       ResizeInPlace
 0001:000052D0       RestoreDC
 0001:0000E0F0       ReturnAddr
 0001:0000D558       ReturnAddr
 0001:00037620       ReturnAddr
 0001:0001621C       RGBQuadToTriple
 0001:000161E4       RGBTripleToQuad
 0002:00001480       rover
 0001:00000210       RtlUnwind
 0002:00000028       runErrMsg
 0001:00002468       RunErrorAt
 0001:0000A1F4       SafeLoadLibrary
 0001:000069F4       SameText
 0001:000052D8       SaveDC
 0002:000017CC       Screen
 0002:00001654       ScreenLogPixels
 0001:00005708       ScreenToClient
 0001:0003F6D0       ScrollBarVisible
 0001:00005710       ScrollWindow
 0001:00000FEC       SearchSmallBlocks
 0001:000052E0       SelectObject
 0001:000052E8       SelectPalette
 0001:0002691C       SendAppMessage
 0002:00001888       SendCounter
 0002:00001890       SendData
 0001:0003EF5C       SendFocusMessage
 0001:00005718       SendMessage
 0002:000008A8       Separators
 0001:00005720       SetActiveWindow
 0001:00046364       SetAnimation
 0001:000052F0       SetBkColor
 0001:000052F8       SetBkMode
 0001:00005300       SetBrushOrgEx
 0001:00005728       SetCapture
 0001:00026BB0       SetCaptureControl
 0001:00005730       SetClassLong
 0001:0001035C       SetCompName
 0001:00005738       SetCursor
 0001:00005308       SetDIBColorTable
 0001:000050F0       SetEndOfFile
 0001:00000218       SetEndOfFile
 0001:00005310       SetEnhMetaFileBits
 0001:000050F8       SetErrorMode
 0001:00005100       SetEvent
 0001:000025B0       SetExceptionHandler
 0001:00005108       SetFilePointer
 0001:00000220       SetFilePointer
 0001:0000B728       SetFloatProp
 0001:00005740       SetFocus
 0001:00005748       SetForegroundWindow
 0001:00033D18       SetImeMode
 0001:000017BC       SetInOutRes
 0001:0000B84C       SetInt64Prop
 0001:00010DB4       SetIntIdent
 0001:0000B610       SetLongStrProp
 0001:00005750       SetMenu
 0001:00005758       SetMenuItemInfo
 0001:0000B814       SetMethodProp
 0001:00010DFC       SetObjectIdent
 0001:0000B518       SetOrdProp
 0001:00005318       SetPixel
 0001:00005760       SetProp
 0001:00005768       SetRect
 0001:00005320       SetROP2
 0001:00005770       SetScrollInfo
 0001:00005778       SetScrollPos
 0001:00005780       SetScrollRange
 0001:0000B574       SetShortStrProp
 0001:0000B5C8       SetShortStrPropAsLongStr
 0001:00005328       SetStretchBltMode
 0001:0000B6FC       SetStrProp
 0001:00005330       SetTextColor
 0001:00005110       SetThreadLocale
 0001:00005788       SetTimer
 0001:0000B7D4       SetVariantProp
 0001:00005338       SetViewportOrgEx
 0001:00047FE8       SetVisible
 0001:0000B664       SetWideStrProp
 0001:0000B6A4       SetWideStrPropAsLongStr
 0001:00005790       SetWindowLong
 0001:00005348       SetWindowOrgEx
 0001:00005798       SetWindowPlacement
 0001:000057A0       SetWindowPos
 0001:000057B0       SetWindowsHookEx
 0001:000057A8       SetWindowText
 0001:00005340       SetWinMetaFileBits
 0002:0000013C       ShareMode
 0001:000489BC       ShellAPI
 0001:00048A9C       ShlObj
 0001:00037644       ShortCut
 0002:000017BC       ShortCutItems
 0001:000376D0       ShortCutToText
 0002:000014FC       ShortDateFormat
 0002:00001578       ShortDayNames
 0002:00001518       ShortMonthNames
 0002:00001510       ShortTimeFormat
 0002:000009C8       ShowCommands
 0002:000009B0       ShowCommands
 0002:000009BC       ShowCommands
 0001:000057B8       ShowCursor
 0001:00008E2C       ShowException
 0002:000007A8       ShowFlags
 0002:00000A54       ShowFlags
 0001:0003ECFC       ShowMDIClientEdge
 0001:000057C0       ShowOwnedPopups
 0001:000057C8       ShowScrollBar
 0001:000057D0       ShowWindow
 0001:0004638C       ShowWinNoAnimate
 0002:000007FC       SizeCursors
 0001:00005118       SizeofResource
 0001:0001187C       SkipBinary
 0001:00011828       SkipBytes
 0001:000118A4       SkipCollection
 0001:00011800       SkipList
 0001:00005120       Sleep
 0001:0000CB80       SmallPoint
 0001:0000588C       SmallPointToPoint
 0002:0000148C       smallTab
 0002:000006AC       Sorteds
 0002:00000670       Sorts
 0002:00001454       spaceRoot
 0001:00024998       StdActns
 0001:000247A8       StdCtrls
 0001:0003F04C       StdWndProc
 0002:0000165C       StockBrush
 0002:00001660       StockFont
 0002:00001664       StockIcon
 0002:00001658       StockPen
 0001:00007030       StrAlloc
 0001:00007044       StrBufSize
 0001:0000978C       StrByteType
 0001:00006F50       StrComp
 0001:00006EB0       StrCopy
 0001:0000707C       StrDispose
 0001:000360BC       StreamsEqual
 0001:00006E60       StrEnd
 0001:00005350       StretchBlt
 0001:000074FC       StrFmt
 0001:0000EF0C       StringListAnsiCompare
 0001:00003518       StringToOleStr
 0001:0003C670       StripHotkey
 0001:00006ED8       StrLCopy
 0001:00006E48       StrLen
 0001:00007530       StrLFmt
 0001:00006F74       StrLIComp
 0001:00006E74       StrMove
 0001:00007050       StrNew
 0001:00006F0C       StrPCopy
 0001:00006F30       StrPLCopy
 0001:00006FDC       StrPos
 0001:00006FBC       StrScan
 0001:00006BB0       StrToInt
 0001:00006BEC       StrToIntDef
 0002:000006A0       Styles
 0002:0000099C       Styles
 0001:00000300       SysAllocStringLen
 0001:00005D24       SysConst
 0002:00000964       SysConsts
 0002:0000096C       SysConsts
 0001:000086C4       SysErrorMessage
 0001:00001294       SysFreeMem
 0001:00000310       SysFreeString
 0001:0000110C       SysGetMem
 0001:00004F78       SysInit
 0002:000015B0       SysLocale
 0001:00001608       SysReallocMem
 0001:00000308       SysReAllocStringLen
 0001:00000318       SysStringLen
 0001:00004D14       System
 0002:0000164C       SystemPalette16
 0001:00016404       SystemPaletteOverride
 0001:000057D8       SystemParametersInfo
 0001:0000AF50       SysUtils
 0002:000006D4       TabStops
 0001:000348C0       TActionLink.IsCaptionLinked
 0001:000348D4       TActionLink.IsCheckedLinked
 0001:000348E8       TActionLink.IsEnabledLinked
 0001:000348FC       TActionLink.IsHelpContextLinked
 0001:00034910       TActionLink.IsHintLinked
 0001:00034924       TActionLink.IsImageIndexLinked
 0001:00034938       TActionLink.IsShortCutLinked
 0001:0003494C       TActionLink.IsVisibleLinked
 0001:00034960       TActionLink.SetCaption
 0001:00034964       TActionLink.SetChecked
 0001:00034968       TActionLink.SetEnabled
 0001:0003496C       TActionLink.SetHelpContext
 0001:00034970       TActionLink.SetHint
 0001:00034974       TActionLink.SetImageIndex
 0001:00034978       TActionLink.SetShortCut
 0001:0003497C       TActionLink.SetVisible
 0001:00048480       TApplication.ActivateHint
 0001:00047328       TApplication.BringToFront
 0001:000482A0       TApplication.CancelHint
 0001:00046A08       TApplication.CheckIniChange
 0001:000467E4       TApplication.ControlDestroyed
 0001:000463CC       TApplication.Create
 0001:00047738       TApplication.CreateForm
 0001:00046644       TApplication.CreateHandle
 0001:00046564       TApplication.Destroy
 0001:00048828       TApplication.DispatchAction
 0001:00047CC0       TApplication.DoActionIdle
 0001:00047D24       TApplication.DoMouseIdle
 0001:000468B4       TApplication.DoNormalizeTopMosts
 0001:000488B8       TApplication.ExecuteAction
 0001:0004717C       TApplication.GetIconHandle
 0001:00047364       TApplication.GetTitle
 0001:00047880       TApplication.HandleException
 0001:00047624       TApplication.HandleMessage
 0001:00047C78       TApplication.HelpCommand
 0001:00047C6C       TApplication.HelpContext
 0001:00048264       TApplication.HideHint
 0001:00048124       TApplication.HintMouseMessage
 0001:00048230       TApplication.HintTimerExpired
 0001:00047648       TApplication.HookMainWindow
 0001:00047EF0       TApplication.IconChanged
 0001:00047DA8       TApplication.Idle
 0001:00047720       TApplication.Initialize
 0001:00047B40       TApplication.InvokeHelp
 0001:000473AC       TApplication.IsDlgMsg
 0001:000474D8       TApplication.IsHintMsg
 0001:00047420       TApplication.IsKeyMsg
 0001:000473D0       TApplication.IsMDIMsg
 0001:00047508       TApplication.IsShortCut
 0001:00047910       TApplication.MessageBox
 0001:00047198       TApplication.Minimize
 0001:00046964       TApplication.NormalizeAllTopMosts
 0001:0004695C       TApplication.NormalizeTopMosts
 0001:00047EB4       TApplication.NotifyForms
 0001:00047574       TApplication.ProcessMessage
 0001:0004760C       TApplication.ProcessMessages
 0001:00047238       TApplication.Restore
 0001:0004696C       TApplication.RestoreTopMosts
 0001:000477B8       TApplication.Run
 0001:00047F54       TApplication.SetHint
 0001:00047C80       TApplication.SetShowHint
 0001:00047A68       TApplication.ShowException
 0001:000480CC       TApplication.StartHintTimer
 0001:00048104       TApplication.StopHintTimer
 0001:0004786C       TApplication.Terminate
 0001:000476A4       TApplication.UnhookMainWindow
 0001:000488E0       TApplication.UpdateAction
 0001:00048044       TApplication.UpdateVisible
 0001:000469F0       TApplication.UseRightToLeftAlignment
 0001:000469D8       TApplication.UseRightToLeftReading
 0001:00046AE0       TApplication.WndProc
 0002:00000928       TaskActiveWindow
 0002:00000930       TaskFirstTopMost
 0002:0000092C       TaskFirstWindow
 0002:00000934       TaskWindowList
 0001:00026F88       TBaseDragControlObject.Assign
 0001:00026F64       TBaseDragControlObject.Create
 0001:00026FB4       TBaseDragControlObject.EndDrag
 0001:00026FD8       TBaseDragControlObject.Finished
 0001:00012838       TBasicAction.Change
 0001:00012710       TBasicAction.Create
 0001:00012754       TBasicAction.Destroy
 0001:000127AC       TBasicAction.Execute
 0001:000127A4       TBasicAction.ExecuteTarget
 0001:000127A0       TBasicAction.HandlesTarget
 0001:0001284C       TBasicAction.RegisterChanges
 0001:000127E4       TBasicAction.SetOnExecute
 0001:00012858       TBasicAction.UnRegisterChanges
 0001:000127C8       TBasicAction.Update
 0001:000127A8       TBasicAction.UpdateTarget
 0001:0001266C       TBasicActionLink.AssignClient
 0001:000126A4       TBasicActionLink.Change
 0001:00012628       TBasicActionLink.Create
 0001:00012670       TBasicActionLink.Destroy
 0001:000126BC       TBasicActionLink.Execute
 0001:000126F8       TBasicActionLink.IsOnExecuteLinked
 0001:000126CC       TBasicActionLink.SetAction
 0001:000126FC       TBasicActionLink.SetOnExecute
 0001:00012704       TBasicActionLink.Update
 0001:00019738       TBitmap.Assign
 0001:0001990C       TBitmap.Changed
 0001:000198E8       TBitmap.Changing
 0001:00019828       TBitmap.CopyImage
 0001:00019694       TBitmap.Create
 0001:000196FC       TBitmap.Destroy
 0001:00019D34       TBitmap.DIBNeeded
 0001:00019918       TBitmap.Dormant
 0001:00019934       TBitmap.Draw
 0001:00019DA8       TBitmap.FreeContext
 0001:00019B84       TBitmap.FreeImage
 0001:00019C00       TBitmap.GetCanvas
 0001:00019BE8       TBitmap.GetEmpty
 0001:00019C40       TBitmap.GetHandle
 0001:00019C64       TBitmap.GetHandleType
 0001:00019C90       TBitmap.GetHeight
 0001:00019CA0       TBitmap.GetMaskHandle
 0001:00019CB4       TBitmap.GetMonochrome
 0001:00019CD0       TBitmap.GetPalette
 0001:00019CE4       TBitmap.GetTransparentColor
 0001:00019D2C       TBitmap.GetWidth
 0001:00019DB8       TBitmap.HandleNeeded
 0001:00019EE0       TBitmap.LoadFromClipboardFormat
 0001:00019F64       TBitmap.LoadFromStream
 0001:00019DC8       TBitmap.MaskHandleNeeded
 0001:00019F88       TBitmap.NewImage
 0001:00019E28       TBitmap.PaletteNeeded
 0001:0001A088       TBitmap.ReadData
 0001:0001A0B0       TBitmap.ReadDIB
 0001:0001A5C0       TBitmap.ReadStream
 0001:0001AD24       TBitmap.SaveToClipboardFormat
 0001:0001AD1C       TBitmap.SaveToStream
 0001:0001A630       TBitmap.SetHandle
 0001:0001A6F4       TBitmap.SetHandleType
 0001:0001A82C       TBitmap.SetHeight
 0001:0001A880       TBitmap.SetMonochrome
 0001:0001A900       TBitmap.SetPalette
 0001:0001A9D4       TBitmap.SetTransparentColor
 0001:0001AA24       TBitmap.SetWidth
 0001:0001AA78       TBitmap.WriteData
 0001:0001AA80       TBitmap.WriteStream
 0001:00018A00       TBitmapCanvas.Create
 0001:00018B08       TBitmapCanvas.CreateHandle
 0001:00018A3C       TBitmapCanvas.Destroy
 0001:00018A68       TBitmapCanvas.FreeContext
 0001:00018C18       TBitmapImage.Destroy
 0001:00018C74       TBitmapImage.FreeHandle
 0001:0000D9E0       TBits.Destroy
 0001:0000DA10       TBits.Error
 0001:0000DB04       TBits.GetBit
 0001:0000DB1C       TBits.OpenBit
 0001:0000DAD8       TBits.SetBit
 0001:0000DA34       TBits.SetSize
 0001:000150AC       TBrush.Assign
 0001:00015044       TBrush.Create
 0001:00015084       TBrush.Destroy
 0001:000151E8       TBrush.GetColor
 0001:00015154       TBrush.GetData
 0001:00015224       TBrush.GetHandle
 0001:00015304       TBrush.GetStyle
 0001:000151C4       TBrush.SetBitmap
 0001:000151F0       TBrush.SetColor
 0001:00015174       TBrush.SetData
 0001:0001530C       TBrush.SetStyle
 0001:00022D64       TButton.Click
 0001:00022EEC       TButton.CMDialogChar
 0001:00022E7C       TButton.CMDialogKey
 0001:00022F70       TButton.CMFocusChanged
 0001:00022E68       TButton.CNCommand
 0001:00022D00       TButton.Create
 0001:00022E14       TButton.CreateParams
 0001:00022E50       TButton.CreateWnd
 0001:00022D8C       TButton.SetButtonStyle
 0001:00022DE0       TButton.SetDefault
 0001:00022D88       TButton.UseRightToLeftAlignment
 0001:00022FC4       TButton.WMEraseBkgnd
 0001:00022AFC       TButtonActionLink.AssignClient
 0001:00022B20       TButtonActionLink.IsCheckedLinked
 0001:00022B58       TButtonActionLink.SetChecked
 0001:00022C10       TButtonControl.ActionChange
 0001:00022BBC       TButtonControl.Create
 0001:00022C58       TButtonControl.GetActionLinkClass
 0001:00022C60       TButtonControl.GetChecked
 0001:00022C64       TButtonControl.IsCheckedStored
 0001:00022C84       TButtonControl.SetChecked
 0001:00022C88       TButtonControl.WndProc
 0001:0004BDA8       TButtonGlyph.CalcButtonLayout
 0001:0004B428       TButtonGlyph.Create
 0001:0004B630       TButtonGlyph.CreateButtonGlyph
 0001:0004B4BC       TButtonGlyph.Destroy
 0001:0004C0B8       TButtonGlyph.Draw
 0001:0004BC08       TButtonGlyph.DrawButtonGlyph
 0001:0004BCC4       TButtonGlyph.DrawButtonText
 0001:0004B560       TButtonGlyph.GlyphChanged
 0001:0004B518       TButtonGlyph.Invalidate
 0001:0004B590       TButtonGlyph.SetGlyph
 0001:0004B608       TButtonGlyph.SetNumGlyphs
 0001:00015C3C       TCanvas.BrushChanged
 0001:00015B10       TCanvas.Changed
 0001:00015AFC       TCanvas.Changing
 0001:00015460       TCanvas.CopyRect
 0001:00015340       TCanvas.Create
 0001:00015B80       TCanvas.CreateBrush
 0001:00015B24       TCanvas.CreateFont
 0001:00015A30       TCanvas.CreateHandle
 0001:00015B50       TCanvas.CreatePen
 0001:000159D4       TCanvas.DeselectHandles
 0001:00015404       TCanvas.Destroy
 0001:000154E8       TCanvas.Draw
 0001:00015594       TCanvas.FillRect
 0001:00015BFC       TCanvas.FontChanged
 0001:00015718       TCanvas.GetCanvasOrientation
 0001:000159B4       TCanvas.GetHandle
 0001:000158FC       TCanvas.GetPenPos
 0001:00015940       TCanvas.GetPixel
 0001:000155D0       TCanvas.LineTo
 0001:00015608       TCanvas.Lock
 0001:00015630       TCanvas.MoveTo
 0001:00015C1C       TCanvas.PenChanged
 0001:0001565C       TCanvas.Polyline
 0001:00015694       TCanvas.Rectangle
 0001:00015A88       TCanvas.RequiredState
 0001:000158F0       TCanvas.SetBrush
 0001:000158D4       TCanvas.SetFont
 0001:00015A34       TCanvas.SetHandle
 0001:000158E4       TCanvas.SetPen
 0001:00015920       TCanvas.SetPenPos
 0001:0001596C       TCanvas.SetPixel
 0001:000156DC       TCanvas.StretchDraw
 0001:000157D0       TCanvas.TextExtent
 0001:00015830       TCanvas.TextHeight
 0001:00015744       TCanvas.TextOut
 0001:00015814       TCanvas.TextWidth
 0001:00015850       TCanvas.TryLock
 0001:000158AC       TCanvas.Unlock
 0001:00036710       TChangeLink.Change
 0001:000366DC       TChangeLink.Destroy
 0001:000176B8       TClipboardFormats.Add
 0001:0001760C       TClipboardFormats.Create
 0001:0001768C       TClipboardFormats.Destroy
 0001:0000DD64       TCollection.Add
 0001:0000DD70       TCollection.Clear
 0001:000218CC       TComboBoxStrings.Add
 0001:000219F0       TComboBoxStrings.Clear
 0001:000219D0       TComboBoxStrings.Delete
 0001:000217EC       TComboBoxStrings.Get
 0001:000217D0       TComboBoxStrings.GetCount
 0001:00021830       TComboBoxStrings.GetObject
 0001:00021A94       TComboBoxStrings.IndexOf
 0001:00021950       TComboBoxStrings.Insert
 0001:000218A8       TComboBoxStrings.PutObject
 0001:00021A60       TComboBoxStrings.SetUpdateState
 0001:00011F20       TComponent.BeforeDestruction
 0001:0001243C       TComponent.ChangeName
 0001:00011E4C       TComponent.Create
 0001:000121D4       TComponent.DefineProperties
 0001:00011E98       TComponent.Destroy
 0001:000120A4       TComponent.DestroyComponents
 0001:000120FC       TComponent.Destroying
 0001:00012578       TComponent.ExecuteAction
 0001:00012360       TComponent.FindComponent
 0001:00011F2C       TComponent.FreeNotification
 0001:00012268       TComponent.GetChildOwner
 0001:0001226C       TComponent.GetChildParent
 0001:00012260       TComponent.GetChildren
 0001:00012450       TComponent.GetComponent
 0001:0001247C       TComponent.GetComponentCount
 0001:00012270       TComponent.GetNamePath
 0001:00012284       TComponent.GetOwner
 0001:0001228C       TComponent.GetParentComponent
 0001:0001225C       TComponent.HasParent
 0001:00011FC0       TComponent.Insert
 0001:00012014       TComponent.InsertComponent
 0001:000122AC       TComponent.Loaded
 0001:00012178       TComponent.Notification
 0001:000125E8       TComponent.QueryInterface
 0001:00011F80       TComponent.ReadLeft
 0001:000122B8       TComponent.ReadState
 0001:00011F94       TComponent.ReadTop
 0001:00011FEC       TComponent.Remove
 0001:0001206C       TComponent.RemoveComponent
 0001:0001215C       TComponent.RemoveFreeNotification
 0001:00012138       TComponent.RemoveNotification
 0001:000125C8       TComponent.SafeCallException
 0001:00012288       TComponent.SetChildOrder
 0001:0001248C       TComponent.SetComponentIndex
 0001:000124E0       TComponent.SetDesigning
 0001:000123B0       TComponent.SetName
 0001:00012290       TComponent.SetParentComponent
 0001:00012530       TComponent.SetReference
 0001:000125A0       TComponent.UpdateAction
 0001:000122A0       TComponent.Updated
 0001:000125E0       TComponent.UpdateRegistry
 0001:00012294       TComponent.Updating
 0001:00012348       TComponent.ValidateContainer
 0001:0001235C       TComponent.ValidateInsert
 0001:000122C8       TComponent.ValidateRename
 0001:00011FA8       TComponent.WriteLeft
 0001:000122C0       TComponent.WriteState
 0001:00011FB4       TComponent.WriteTop
 0001:000343A8       TContainedAction.Destroy
 0001:00034514       TContainedAction.Execute
 0001:000343DC       TContainedAction.GetIndex
 0001:000343F8       TContainedAction.GetParentComponent
 0001:00034408       TContainedAction.HasParent
 0001:000343F4       TContainedAction.IsCategoryStored
 0001:00034418       TContainedAction.ReadState
 0001:000344C0       TContainedAction.SetActionList
 0001:00034494       TContainedAction.SetCategory
 0001:0003444C       TContainedAction.SetIndex
 0001:000344E8       TContainedAction.SetParentComponent
 0001:0003456C       TContainedAction.Update
 0001:0002B1F8       TControl.ActionChange
 0001:0002B5B8       TControl.AdjustSize
 0001:0002B3F0       TControl.AssignTo
 0001:00029D14       TControl.BeginAutoDrag
 0001:00029D2C       TControl.BeginDrag
 0001:0002992C       TControl.BringToFront
 0001:0002A6C0       TControl.CalcDockSizes
 0001:0002A4B8       TControl.CanAutoSize
 0001:0002A4BC       TControl.CanResize
 0001:00029354       TControl.Changed
 0001:00029364       TControl.ChangeScale
 0001:0002AB60       TControl.CheckNewSize
 0001:0002A998       TControl.Click
 0001:00029260       TControl.ClientToScreen
 0001:0002AFB4       TControl.CMBiDiModeChanged
 0001:0002AF5C       TControl.CMColorChanged
 0001:0002B07C       TControl.CMDesignHitTest
 0001:0002AF4C       TControl.CMEnabledChanged
 0001:0002B198       TControl.CMFloat
 0001:0002AF54       TControl.CMFontChanged
 0001:0002B640       TControl.CMHintShow
 0001:0002B044       TControl.CMHitTest
 0001:0002B04C       TControl.CMMouseEnter
 0001:0002B064       TControl.CMMouseLeave
 0001:0002AF94       TControl.CMParentBiDiModeChanged
 0001:0002AF64       TControl.CMParentColorChanged
 0001:0002AFF4       TControl.CMParentFontChanged
 0001:0002AFCC       TControl.CMParentShowHintChanged
 0001:0002B024       TControl.CMSysFontChanged
 0001:0002AF24       TControl.CMVisibleChanged
 0001:0002A588       TControl.ConstrainedResize
 0001:000288EC       TControl.Create
 0001:0002B084       TControl.CreateFloatingDockSite
 0001:0002AA04       TControl.DblClick
 0001:00029FE4       TControl.DefaultDockImage
 0001:0002A870       TControl.DefaultHandler
 0001:0002A948       TControl.DefineProperties
 0001:000289BC       TControl.Destroy
 0001:0002B2EC       TControl.DoActionChange
 0001:0002A4EC       TControl.DoCanAutoSize
 0001:0002A558       TControl.DoCanResize
 0001:00028F8C       TControl.Dock
 0001:00029F84       TControl.DockTrackNoTarget
 0001:0002A5B8       TControl.DoConstrainedResize
 0001:0002A4AC       TControl.DoConstraintsChange
 0001:0002B780       TControl.DoContextPopup
 0001:00029098       TControl.DoDock
 0001:0002A134       TControl.DoDragMsg
 0001:00029F98       TControl.DoEndDock
 0001:00029E88       TControl.DoEndDrag
 0001:0002AA5C       TControl.DoMouseDown
 0001:0002AD40       TControl.DoMouseUp
 0001:00029FC4       TControl.DoStartDock
 0001:00029E68       TControl.DoStartDrag
 0001:00029DF0       TControl.DragCanceled
 0001:00029E3C       TControl.DragDrop
 0001:00029DF4       TControl.Dragging
 0001:00029E00       TControl.DragOver
 0001:0002A114       TControl.DrawDragDockImage
 0001:0002B5D4       TControl.DrawTextBiDiModeFlags
 0001:0002B614       TControl.DrawTextBiDiModeFlagsReadingOnly
 0001:0002A124       TControl.EraseDragDockImage
 0001:00029798       TControl.FontChanged
 0001:00028B30       TControl.GetAction
 0001:0002B310       TControl.GetActionLinkClass
 0001:000290F0       TControl.GetBoundsRect
 0001:00029190       TControl.GetClientHeight
 0001:000291D0       TControl.GetClientOrigin
 0001:00029134       TControl.GetClientRect
 0001:0002914C       TControl.GetClientWidth
 0001:00029CC4       TControl.GetControlsAlignment
 0001:000299E0       TControl.GetDeviceContext
 0001:0002B4D4       TControl.GetDockEdge
 0001:00028A74       TControl.GetDragImages
 0001:00028A78       TControl.GetEnabled
 0001:0002B584       TControl.GetFloating
 0001:0002B5B0       TControl.GetFloatingDockSiteClass
 0001:000298F4       TControl.GetMouseCapture
 0001:00028A7C       TControl.GetPalette
 0001:00028A88       TControl.GetParentComponent
 0001:0002AB5C       TControl.GetPopupMenu
 0001:000296E8       TControl.GetText
 0001:0002966C       TControl.GetTextBuf
 0001:0002965C       TControl.GetTextLen
 0001:00029678       TControl.GetUndockHeight
 0001:0002968C       TControl.GetUndockWidth
 0001:00028A80       TControl.HasParent
 0001:0002B630       TControl.InitiateAction
 0001:00029BA0       TControl.Invalidate
 0001:00029B14       TControl.InvalidateControl
 0001:00028BDC       TControl.IsAnchorsStored
 0001:00029804       TControl.IsBiDiModeStored
 0001:0002B318       TControl.IsCaptionStored
 0001:00029890       TControl.IsColorStored
 0001:0002B338       TControl.IsEnabledStored
 0001:000297E4       TControl.IsFontStored
 0001:0002B358       TControl.IsHintStored
 0001:0002B398       TControl.IsOnClickStored
 0001:000297F8       TControl.IsShowHintStored
 0001:0002B378       TControl.IsVisibleStored
 0001:0002B3B8       TControl.Loaded
 0001:0002A224       TControl.ManualDock
 0001:0002A40C       TControl.ManualFloat
 0001:0002AA24       TControl.MouseDown
 0001:0002AC9C       TControl.MouseMove
 0001:0002AD08       TControl.MouseUp
 0001:00028CBC       TControl.Notification
 0001:00028AB4       TControl.PaletteChanged
 0001:0002A68C       TControl.Perform
 0001:00029EB4       TControl.PositionDockRect
 0001:0002A8F8       TControl.ReadIsControl
 0001:00028C28       TControl.ReadState
 0001:00029BC4       TControl.Refresh
 0001:00029BCC       TControl.Repaint
 0001:00028BF8       TControl.RequestAlign
 0001:00028C08       TControl.Resize
 0001:0002928C       TControl.ScreenToClient
 0001:000292B8       TControl.SendCancelMode
 0001:000292E8       TControl.SendDockNotification
 0001:00028B60       TControl.SetAction
 0001:00028D00       TControl.SetAlign
 0001:00028B40       TControl.SetAnchors
 0001:000294A8       TControl.SetAutoSize
 0001:0002977C       TControl.SetBiDiMode
 0001:00028D94       TControl.SetBounds
 0001:00029110       TControl.SetBoundsRect
 0001:000291A8       TControl.SetClientHeight
 0001:0002956C       TControl.SetClientSize
 0001:00029164       TControl.SetClientWidth
 0001:00029874       TControl.SetColor
 0001:000298D8       TControl.SetCursor
 0001:00028BF4       TControl.SetDragMode
 0001:00029644       TControl.SetEnabled
 0001:000297D4       TControl.SetFont
 0001:00028F6C       TControl.SetHeight
 0001:00028F08       TControl.SetLeft
 0001:00029904       TControl.SetMouseCapture
 0001:000294C8       TControl.SetName
 0001:000295B4       TControl.SetParent
 0001:000298B8       TControl.SetParentBiDiMode
 0001:00029898       TControl.SetParentColor
 0001:00028A8C       TControl.SetParentComponent
 0001:0002980C       TControl.SetParentFont
 0001:00029850       TControl.SetParentShowHint
 0001:000296A0       TControl.SetPopupMenu
 0001:0002982C       TControl.SetShowHint
 0001:00029718       TControl.SetText
 0001:000296C4       TControl.SetTextBuf
 0001:00028F28       TControl.SetTop
 0001:00029600       TControl.SetVisible
 0001:00028F4C       TControl.SetWidth
 0001:000299BC       TControl.SetZOrder
 0001:0002993C       TControl.SetZOrderPosition
 0001:00029BB0       TControl.Update
 0001:00028E2C       TControl.UpdateAnchorRules
 0001:0002A730       TControl.UpdateBoundsRect
 0001:00029CE0       TControl.UseRightToLeftAlignment
 0001:00029CC8       TControl.UseRightToLeftReading
 0001:00029CF8       TControl.UseRightToLeftScrollBar
 0001:0002A754       TControl.VisibleChanging
 0001:0002AE34       TControl.WMCancelMode
 0001:0002B66C       TControl.WMContextMenu
 0001:0002AB08       TControl.WMLButtonDblClk
 0001:0002AAA0       TControl.WMLButtonDown
 0001:0002AD7C       TControl.WMLButtonUp
 0001:0002AC74       TControl.WMMButtonDblClk
 0001:0002AC4C       TControl.WMMButtonDown
 0001:0002AE14       TControl.WMMButtonUp
 0001:0002ACCC       TControl.WMMouseMove
 0001:0002AAEC       TControl.WMNCLButtonDown
 0001:0002AC24       TControl.WMRButtonDblClk
 0001:0002ABFC       TControl.WMRButtonDown
 0001:0002ADF4       TControl.WMRButtonUp
 0001:0002AE74       TControl.WMWindowPosChanged
 0001:0002A758       TControl.WndProc
 0001:0002A90C       TControl.WriteIsControl
 0001:00028604       TControlActionLink.AssignClient
 0001:00028620       TControlActionLink.DoShowHint
 0001:00028708       TControlActionLink.IsCaptionLinked
 0001:0002877C       TControlActionLink.IsEnabledLinked
 0001:000287B0       TControlActionLink.IsHintLinked
 0001:00028814       TControlActionLink.IsOnExecuteLinked
 0001:000287E4       TControlActionLink.IsVisibleLinked
 0001:0002883C       TControlActionLink.SetCaption
 0001:0002885C       TControlActionLink.SetEnabled
 0001:0002887C       TControlActionLink.SetHint
 0001:000288C0       TControlActionLink.SetOnExecute
 0001:000288A0       TControlActionLink.SetVisible
 0001:000283A0       TControlCanvas.CreateHandle
 0001:00028374       TControlCanvas.Destroy
 0001:00028448       TControlCanvas.FreeHandle
 0001:0002847C       TControlCanvas.SetControl
 0001:00028494       TControlCanvas.UpdateTextFlags
 0001:0003F490       TControlScrollBar.Assign
 0001:0003F5EC       TControlScrollBar.CalcAutoRange
 0001:0003F4E0       TControlScrollBar.ChangeBiDiPosition
 0001:0003F780       TControlScrollBar.ControlSize
 0001:0003F400       TControlScrollBar.Create
 0001:0003FD20       TControlScrollBar.DoSetRange
 0001:0003F488       TControlScrollBar.IsIncrementStored
 0001:0003FD4C       TControlScrollBar.IsRangeStored
 0001:0003F698       TControlScrollBar.IsScrollBarVisible
 0001:0003F800       TControlScrollBar.NeedsScrollBarVisible
 0001:0003F878       TControlScrollBar.ScrollMessage
 0001:0003FB70       TControlScrollBar.SetButtonSize
 0001:0003FBB4       TControlScrollBar.SetColor
 0001:0003FBD0       TControlScrollBar.SetParentColor
 0001:0003FBE8       TControlScrollBar.SetPosition
 0001:0003FD38       TControlScrollBar.SetRange
 0001:0003FCAC       TControlScrollBar.SetSize
 0001:0003FCF0       TControlScrollBar.SetStyle
 0001:0003FD08       TControlScrollBar.SetThumbSize
 0001:0003FD58       TControlScrollBar.SetVisible
 0001:0003FE6C       TControlScrollBar.Update
 0001:00034A00       TCustomAction.AssignTo
 0001:00034980       TCustomAction.Create
 0001:000349C8       TCustomAction.Destroy
 0001:00034DAC       TCustomAction.DoHint
 0001:00034DCC       TCustomAction.Execute
 0001:00034A7C       TCustomAction.SetCaption
 0001:00034AE4       TCustomAction.SetChecked
 0001:00034B3C       TCustomAction.SetEnabled
 0001:00034B94       TCustomAction.SetHelpContext
 0001:00034BEC       TCustomAction.SetHint
 0001:00034C54       TCustomAction.SetImageIndex
 0001:00034D60       TCustomAction.SetName
 0001:00034CAC       TCustomAction.SetShortCut
 0001:00034D08       TCustomAction.SetVisible
 0001:0003477C       TCustomActionList.AddAction
 0001:000347B8       TCustomActionList.Change
 0001:000345C4       TCustomActionList.Create
 0001:0003462C       TCustomActionList.Destroy
 0001:00034880       TCustomActionList.ExecuteAction
 0001:0003467C       TCustomActionList.GetChildren
 0001:00034728       TCustomActionList.ImageListChange
 0001:00034820       TCustomActionList.IsShortCut
 0001:00034734       TCustomActionList.Notification
 0001:0003479C       TCustomActionList.RemoveAction
 0001:000346C4       TCustomActionList.SetChildOrder
 0001:000346F4       TCustomActionList.SetImages
 0001:000348A0       TCustomActionList.UpdateAction
 0001:000230A4       TCustomCheckBox.Click
 0001:000231D8       TCustomCheckBox.CMCtl3DChanged
 0001:000231E0       TCustomCheckBox.CMDialogChar
 0001:0002327C       TCustomCheckBox.CNCommand
 0001:00022FCC       TCustomCheckBox.Create
 0001:0002313C       TCustomCheckBox.CreateParams
 0001:00023198       TCustomCheckBox.CreateWnd
 0001:000230B8       TCustomCheckBox.GetChecked
 0001:00023038       TCustomCheckBox.GetControlsAlignment
 0001:000230C4       TCustomCheckBox.SetAlignment
 0001:000230D8       TCustomCheckBox.SetChecked
 0001:000230EC       TCustomCheckBox.SetState
 0001:00023064       TCustomCheckBox.Toggle
 0001:000231C4       TCustomCheckBox.WMSize
 0001:0002262C       TCustomComboBox.AdjustDropDown
 0001:00022834       TCustomComboBox.Change
 0001:00022080       TCustomComboBox.CMCancelMode
 0001:00022094       TCustomComboBox.CMCtl3DChanged
 0001:000220B8       TCustomComboBox.CMParentColorChanged
 0001:000226E8       TCustomComboBox.CNCommand
 0001:00022950       TCustomComboBox.CNDrawItem
 0001:00022A20       TCustomComboBox.CNMeasureItem
 0001:00022204       TCustomComboBox.ComboWndProc
 0001:00021ABC       TCustomComboBox.Create
 0001:00021DB8       TCustomComboBox.CreateParams
 0001:00021E1C       TCustomComboBox.CreateWnd
 0001:00021BB8       TCustomComboBox.Destroy
 0001:00021F80       TCustomComboBox.DestroyWnd
 0001:00022858       TCustomComboBox.DrawItem
 0001:00022910       TCustomComboBox.DropDown
 0001:000220E0       TCustomComboBox.EditWndProc
 0001:00022AC8       TCustomComboBox.Focused
 0001:000221FC       TCustomComboBox.GetComboControl
 0001:00021C2C       TCustomComboBox.GetDroppedDown
 0001:00021D74       TCustomComboBox.GetItemHeight
 0001:00021C98       TCustomComboBox.GetItemIndex
 0001:000221D8       TCustomComboBox.ListWndProc
 0001:00022930       TCustomComboBox.MeasureItem
 0001:00021C50       TCustomComboBox.SetDroppedDown
 0001:00021D98       TCustomComboBox.SetItemHeight
 0001:00021CB4       TCustomComboBox.SetItemIndex
 0001:00021DA8       TCustomComboBox.SetItems
 0001:00021CE0       TCustomComboBox.SetMaxLength
 0001:00021D20       TCustomComboBox.SetSorted
 0001:00021D34       TCustomComboBox.SetStyle
 0001:00021FCC       TCustomComboBox.WMCreate
 0001:00022054       TCustomComboBox.WMDeleteItem
 0001:00022044       TCustomComboBox.WMDrawItem
 0001:00021FF0       TCustomComboBox.WMEraseBkgnd
 0001:0002205C       TCustomComboBox.WMGetDlgCode
 0001:00022A50       TCustomComboBox.WMLButtonDown
 0001:0002204C       TCustomComboBox.WMMeasureItem
 0001:000224E0       TCustomComboBox.WndProc
 0001:000311D0       TCustomControl.Create
 0001:0003122C       TCustomControl.Destroy
 0001:00031328       TCustomControl.Paint
 0001:0003127C       TCustomControl.PaintWindow
 0001:0003125C       TCustomControl.WMPaint
 0001:000451F8       TCustomDockForm.CMControlListChange
 0001:00045250       TCustomDockForm.CMDockNotification
 0001:00045334       TCustomDockForm.CMUnDockClient
 0001:0004534C       TCustomDockForm.CMVisibleChanged
 0001:00044F50       TCustomDockForm.Create
 0001:00044FB8       TCustomDockForm.DoAddDockClient
 0001:000450A0       TCustomDockForm.DoRemoveDockClient
 0001:0004510C       TCustomDockForm.GetSiteInfo
 0001:000450C0       TCustomDockForm.Loaded
 0001:00045138       TCustomDockForm.WMNCHitTest
 0001:00045160       TCustomDockForm.WMNCLButtonDown
 0001:0002159C       TCustomEdit.AdjustHeight
 0001:00021644       TCustomEdit.Change
 0001:00021204       TCustomEdit.Clear
 0001:000216E0       TCustomEdit.CMCtl3DChanged
 0001:0002175C       TCustomEdit.CMEnter
 0001:00021714       TCustomEdit.CMFontChanged
 0001:00021798       TCustomEdit.CMTextChanged
 0001:0002173C       TCustomEdit.CNCommand
 0001:00020E8C       TCustomEdit.Create
 0001:00021374       TCustomEdit.CreateParams
 0001:00021430       TCustomEdit.CreateWindowHandle
 0001:000214A0       TCustomEdit.CreateWnd
 0001:00021668       TCustomEdit.DefaultHandler
 0001:00021544       TCustomEdit.DestroyWnd
 0001:00020F34       TCustomEdit.DoSetMaxLength
 0001:00020FF8       TCustomEdit.GetModified
 0001:00021170       TCustomEdit.GetSelLength
 0001:0002112C       TCustomEdit.GetSelStart
 0001:000212D8       TCustomEdit.GetSelText
 0001:0002123C       TCustomEdit.GetSelTextBuf
 0001:00021220       TCustomEdit.SelectAll
 0001:00020F54       TCustomEdit.SetAutoSize
 0001:00020F68       TCustomEdit.SetBorderStyle
 0001:00020F8C       TCustomEdit.SetCharCase
 0001:00020FA0       TCustomEdit.SetHideSelection
 0001:00020FB4       TCustomEdit.SetMaxLength
 0001:00021030       TCustomEdit.SetModified
 0001:00020FE4       TCustomEdit.SetOEMConvert
 0001:00021068       TCustomEdit.SetPasswordChar
 0001:000210F0       TCustomEdit.SetReadOnly
 0001:000211A0       TCustomEdit.SetSelLength
 0001:00021150       TCustomEdit.SetSelStart
 0001:00021560       TCustomEdit.UpdateHeight
 0001:000216A0       TCustomEdit.WMSetFont
 0001:00043300       TCustomForm.Activate
 0001:00043104       TCustomForm.ActiveChanged
 0001:00040A18       TCustomForm.AfterConstruction
 0001:00041C8C       TCustomForm.AlignControls
 0001:00040BB0       TCustomForm.BeforeDestruction
 0001:0004126C       TCustomForm.BeginAutoDrag
 0001:00041270       TCustomForm.ChangeScale
 0001:00041BC4       TCustomForm.ClientWndProc
 0001:000445B4       TCustomForm.Close
 0001:000446BC       TCustomForm.CloseModal
 0001:00044658       TCustomForm.CloseQuery
 0001:00044C80       TCustomForm.CMActionExecute
 0001:00044D80       TCustomForm.CMActionUpdate
 0001:00043E70       TCustomForm.CMActivate
 0001:00043A04       TCustomForm.CMAppSysCommand
 0001:00041CC8       TCustomForm.CMBiDiModeChanged
 0001:00042408       TCustomForm.CMColorChanged
 0001:00042444       TCustomForm.CMCtl3DChanged
 0001:00043E90       TCustomForm.CMDeactivate
 0001:00043EB0       TCustomForm.CMDialogKey
 0001:0004248C       TCustomForm.CMFontChanged
 0001:000444C8       TCustomForm.CMIconChanged
 0001:000424AC       TCustomForm.CMMenuChanged
 0001:00041D60       TCustomForm.CMParentBiDiModeChanged
 0001:00044548       TCustomForm.CMParentFontChanged
 0001:000444E8       TCustomForm.CMRelease
 0001:00043F4C       TCustomForm.CMShowingChanged
 0001:000444F0       TCustomForm.CMTextChanged
 0001:00044540       TCustomForm.CMUIActivate
 0001:0004088C       TCustomForm.Create
 0001:00040A50       TCustomForm.CreateNew
 0001:00042854       TCustomForm.CreateParams
 0001:00042BA8       TCustomForm.CreateWindowHandle
 0001:00042A68       TCustomForm.CreateWnd
 0001:00043330       TCustomForm.Deactivate
 0001:00042CEC       TCustomForm.DefaultHandler
 0001:00041128       TCustomForm.DefineProperties
 0001:00042E08       TCustomForm.DefocusControl
 0001:00040C18       TCustomForm.Destroy
 0001:00042CA8       TCustomForm.DestroyWindowHandle
 0001:00041E4C       TCustomForm.Dock
 0001:000413B8       TCustomForm.DoClose
 0001:00040CFC       TCustomForm.DoCreate
 0001:00040D70       TCustomForm.DoDestroy
 0001:00041E94       TCustomForm.DoDock
 0001:000413D8       TCustomForm.DoHide
 0001:000413F8       TCustomForm.DoShow
 0001:00042E50       TCustomForm.FocusControl
 0001:00041EE8       TCustomForm.GetActiveMDIChild
 0001:00042018       TCustomForm.GetCanvas
 0001:000414A0       TCustomForm.GetChildren
 0001:00041418       TCustomForm.GetClientRect
 0001:0004150C       TCustomForm.GetFloating
 0001:00043380       TCustomForm.GetIconHandle
 0001:00041F1C       TCustomForm.GetMDIChildCount
 0001:00041F68       TCustomForm.GetMDIChildren
 0001:00041FB8       TCustomForm.GetMonitor
 0001:00042368       TCustomForm.GetPixelsPerInch
 0001:000423CC       TCustomForm.GetScaled
 0001:00041248       TCustomForm.GetTextHeight
 0001:00044764       TCustomForm.Hide
 0001:000412F0       TCustomForm.IconChanged
 0001:00041384       TCustomForm.IsAutoScrollStored
 0001:0004134C       TCustomForm.IsClientSizeStored
 0001:0004202C       TCustomForm.IsForm
 0001:0004135C       TCustomForm.IsFormSizeStored
 0001:00042034       TCustomForm.IsIconStored
 0001:00044E28       TCustomForm.IsShortCut
 0001:00040DD0       TCustomForm.Loaded
 0001:0004320C       TCustomForm.MergeMenu
 0001:00044F18       TCustomForm.MouseWheelHandler
 0001:0004242C       TCustomForm.NormalColor
 0001:00040E0C       TCustomForm.Notification
 0001:00043360       TCustomForm.Paint
 0001:0004339C       TCustomForm.PaintWindow
 0001:00043454       TCustomForm.PaletteChanged
 0001:00044EA4       TCustomForm.QueryInterface
 0001:000411D8       TCustomForm.ReadIgnoreFontProperty
 0001:00040F18       TCustomForm.ReadState
 0001:000411F8       TCustomForm.ReadTextHeight
 0001:000420DC       TCustomForm.RefreshMDIMenu
 0001:00044800       TCustomForm.Release
 0001:00044B94       TCustomForm.RequestAlign
 0001:00043998       TCustomForm.Resizing
 0001:000431BC       TCustomForm.SendCancelMode
 0001:00043158       TCustomForm.SetActive
 0001:00042D50       TCustomForm.SetActiveControl
 0001:00041DE8       TCustomForm.SetBorderIcons
 0001:00041E14       TCustomForm.SetBorderStyle
 0001:00041538       TCustomForm.SetChildOrder
 0001:00041624       TCustomForm.SetClientHeight
 0001:000415F4       TCustomForm.SetClientWidth
 0001:00044784       TCustomForm.SetFocus
 0001:00042E74       TCustomForm.SetFocusedControl
 0001:0004205C       TCustomForm.SetFormStyle
 0001:00042020       TCustomForm.SetIcon
 0001:000421A4       TCustomForm.SetMenu
 0001:00042158       TCustomForm.SetObjectMenuItem
 0001:00041700       TCustomForm.SetParent
 0001:000415CC       TCustomForm.SetParentBiDiMode
 0001:0004237C       TCustomForm.SetPixelsPerInch
 0001:000423B0       TCustomForm.SetPosition
 0001:000423D8       TCustomForm.SetScaled
 0001:00041654       TCustomForm.SetVisible
 0001:00043108       TCustomForm.SetWindowFocus
 0001:0004217C       TCustomForm.SetWindowMenu
 0001:000424C8       TCustomForm.SetWindowState
 0001:00042508       TCustomForm.SetWindowToMonitor
 0001:0004476C       TCustomForm.Show
 0001:0004481C       TCustomForm.ShowModal
 0001:00044B2C       TCustomForm.UpdateActions
 0001:00041738       TCustomForm.ValidateRename
 0001:00041698       TCustomForm.VisibleChanging
 0001:000416FC       TCustomForm.WantChildKey
 0001:00043978       TCustomForm.WMActivate
 0001:000439D0       TCustomForm.WMClose
 0001:0004384C       TCustomForm.WMCommand
 0001:000437EC       TCustomForm.WMDestroy
 0001:00043C04       TCustomForm.WMEnterMenuLoop
 0001:000435E0       TCustomForm.WMEraseBkgnd
 0001:00043D64       TCustomForm.WMGetMinMaxInfo
 0001:00043C60       TCustomForm.WMHelp
 0001:00043580       TCustomForm.WMIconEraseBkgnd
 0001:00043880       TCustomForm.WMInitMenuPopup
 0001:00043B80       TCustomForm.WMMDIActivate
 0001:00043898       TCustomForm.WMMenuChar
 0001:000438D0       TCustomForm.WMMenuSelect
 0001:00043728       TCustomForm.WMNCCreate
 0001:0004375C       TCustomForm.WMNCLButtonDown
 0001:00043BD8       TCustomForm.WMNextDlgCtl
 0001:00043500       TCustomForm.WMPaint
 0001:00043618       TCustomForm.WMQueryDragIcon
 0001:000439D8       TCustomForm.WMQueryEndSession
 0001:00044BB0       TCustomForm.WMSettingChange
 0001:00043AE8       TCustomForm.WMShowWindow
 0001:00043A5C       TCustomForm.WMSysCommand
 0001:00043DD8       TCustomForm.WMWindowPosChanging
 0001:00041778       TCustomForm.WndProc
 0001:0004122C       TCustomForm.WritePixelsPerInch
 0001:00041210       TCustomForm.WriteTextHeight
 0001:000354F8       TCustomImageList.Add
 0001:00035DE0       TCustomImageList.AddImages
 0001:000355C4       TCustomImageList.AddMasked
 0001:00035E00       TCustomImageList.Assign
 0001:00035EC0       TCustomImageList.AssignTo
 0001:000366B8       TCustomImageList.BeginUpdate
 0001:00036014       TCustomImageList.Change
 0001:00035F70       TCustomImageList.CheckImage
 0001:000359B8       TCustomImageList.Clear
 0001:00035C48       TCustomImageList.CopyImages
 0001:0003502C       TCustomImageList.Create
 0001:0003545C       TCustomImageList.CreateImageList
 0001:00035078       TCustomImageList.CreateSize
 0001:00036248       TCustomImageList.DefineProperties
 0001:0003592C       TCustomImageList.Delete
 0001:000350CC       TCustomImageList.Destroy
 0001:00035A24       TCustomImageList.DoDraw
 0001:00035BFC       TCustomImageList.Draw
 0001:000366BC       TCustomImageList.EndUpdate
 0001:000360FC       TCustomImageList.Equal
 0001:00035428       TCustomImageList.FreeHandle
 0001:000353B4       TCustomImageList.GetBitmapHandle
 0001:000359FC       TCustomImageList.GetBkColor
 0001:000356E0       TCustomImageList.GetCount
 0001:000353C4       TCustomImageList.GetHandle
 0001:00036004       TCustomImageList.GetHotSpot
 0001:000353D4       TCustomImageList.GetImageHandle
 0001:000351F0       TCustomImageList.HandleAllocated
 0001:000351F8       TCustomImageList.HandleNeeded
 0001:00035204       TCustomImageList.InitBitmap
 0001:00035138       TCustomImageList.Initialize
 0001:000362A0       TCustomImageList.ReadD2Stream
 0001:00036530       TCustomImageList.ReadD3Stream
 0001:000365B4       TCustomImageList.ReadData
 0001:000360A8       TCustomImageList.RegisterChanges
 0001:00035704       TCustomImageList.ReplaceMasked
 0001:000359C4       TCustomImageList.SetBkColor
 0001:00035FE8       TCustomImageList.SetDrawingStyle
 0001:00035388       TCustomImageList.SetHandle
 0001:00035344       TCustomImageList.SetHeight
 0001:000352C8       TCustomImageList.SetNewDimensions
 0001:00035300       TCustomImageList.SetWidth
 0001:00036064       TCustomImageList.UnRegisterChanges
 0001:0003663C       TCustomImageList.WriteData
 0001:00020BE0       TCustomLabel.AdjustBounds
 0001:00020DF0       TCustomLabel.CMDialogChar
 0001:00020DD4       TCustomLabel.CMFontChanged
 0001:00020DBC       TCustomLabel.CMTextChanged
 0001:000208D4       TCustomLabel.Create
 0001:00020954       TCustomLabel.DoDrawText
 0001:00020940       TCustomLabel.GetLabelText
 0001:00020CDC       TCustomLabel.GetTransparent
 0001:00020BC8       TCustomLabel.Loaded
 0001:00020D8C       TCustomLabel.Notification
 0001:00020AC4       TCustomLabel.Paint
 0001:00020CAC       TCustomLabel.SetAlignment
 0001:00020CC0       TCustomLabel.SetAutoSize
 0001:00020CE8       TCustomLabel.SetFocusControl
 0001:00020D50       TCustomLabel.SetLayout
 0001:00020CFC       TCustomLabel.SetShowAccelChar
 0001:00020D10       TCustomLabel.SetTransparent
 0001:00020D64       TCustomLabel.SetWordWrap
 0001:0002474C       TCustomListBox.CMCtl3DChanged
 0001:000242F4       TCustomListBox.CNCommand
 0001:00024664       TCustomListBox.CNDrawItem
 0001:00024720       TCustomListBox.CNMeasureItem
 0001:00023AEC       TCustomListBox.Create
 0001:00023FF8       TCustomListBox.CreateParams
 0001:000240F8       TCustomListBox.CreateWnd
 0001:00023C74       TCustomListBox.DeleteString
 0001:00023BC4       TCustomListBox.Destroy
 0001:00024198       TCustomListBox.DestroyWnd
 0001:000244D0       TCustomListBox.DragCanceled
 0001:00024530       TCustomListBox.DrawItem
 0001:00023C0C       TCustomListBox.GetItemData
 0001:00023DFC       TCustomListBox.GetItemHeight
 0001:00023D38       TCustomListBox.GetItemIndex
 0001:00023E88       TCustomListBox.GetSelected
 0001:00023F00       TCustomListBox.GetTopIndex
 0001:00023C50       TCustomListBox.InternalGetItemData
 0001:00023C5C       TCustomListBox.InternalSetItemData
 0001:00023F6C       TCustomListBox.ItemAtPos
 0001:00024644       TCustomListBox.MeasureItem
 0001:00023C94       TCustomListBox.ResetContent
 0001:00023F1C       TCustomListBox.SetBorderStyle
 0001:00023CF4       TCustomListBox.SetColumns
 0001:00023CB0       TCustomListBox.SetColumnWidth
 0001:00023DC0       TCustomListBox.SetExtendedSelect
 0001:00023DD4       TCustomListBox.SetIntegralHeight
 0001:00023C2C       TCustomListBox.SetItemData
 0001:00023E40       TCustomListBox.SetItemHeight
 0001:00023D74       TCustomListBox.SetItemIndex
 0001:00023F5C       TCustomListBox.SetItems
 0001:00023E74       TCustomListBox.SetMultiSelect
 0001:00023ED8       TCustomListBox.SetSorted
 0001:00023EEC       TCustomListBox.SetStyle
 0001:00023E58       TCustomListBox.SetTabWidth
 0001:00023F30       TCustomListBox.SetTopIndex
 0001:00024258       TCustomListBox.WMLButtonDown
 0001:0002448C       TCustomListBox.WMPaint
 0001:000244BC       TCustomListBox.WMSize
 0001:000241F0       TCustomListBox.WndProc
 0001:0000F274       TCustomMemoryStream.Read
 0001:0000F2AC       TCustomMemoryStream.Seek
 0001:0000F26C       TCustomMemoryStream.SetPointer
 0001:0004A530       TCustomPanel.AdjustClientRect
 0001:0004A6C0       TCustomPanel.CanAutoSize
 0001:0004A1A0       TCustomPanel.CMBorderChanged
 0001:0004A1BC       TCustomPanel.CMCtl3DChanged
 0001:0004A588       TCustomPanel.CMDockClient
 0001:0004A1E8       TCustomPanel.CMIsToolControl
 0001:0004A1B4       TCustomPanel.CMTextChanged
 0001:0004A0B4       TCustomPanel.Create
 0001:0004A14C       TCustomPanel.CreateParams
 0001:0004A528       TCustomPanel.GetControlsAlignment
 0001:0004A334       TCustomPanel.Paint
 0001:0004A498       TCustomPanel.SetAlignment
 0001:0004A4A4       TCustomPanel.SetBevelInner
 0001:0004A4C0       TCustomPanel.SetBevelOuter
 0001:0004A4DC       TCustomPanel.SetBevelWidth
 0001:0004A514       TCustomPanel.SetBorderStyle
 0001:0004A4F8       TCustomPanel.SetBorderWidth
 0001:0004A1FC       TCustomPanel.WMWindowPosChanged
 0001:0003198C       TDockTree.AdjustDockRect
 0001:000319A0       TDockTree.BeginUpdate
 0001:000333EC       TDockTree.ControlVisibilityChanged
 0001:000317D8       TDockTree.Create
 0001:00031940       TDockTree.Destroy
 0001:000331BC       TDockTree.DrawSizeSplitter
 0001:000319A4       TDockTree.EndUpdate
 0001:00031A10       TDockTree.FindControlZone
 0001:00031A78       TDockTree.ForEachAt
 0001:00031A90       TDockTree.GetControlBounds
 0001:0003332C       TDockTree.GetNextLimit
 0001:00031B04       TDockTree.HitTest
 0001:00031B14       TDockTree.InsertControl
 0001:00031D24       TDockTree.InsertNewParent
 0001:00031EAC       TDockTree.InsertSibling
 0001:000321B8       TDockTree.InternalHitTest
 0001:0003228C       TDockTree.LoadFromStream
 0001:00032574       TDockTree.PaintDockFrame
 0001:00032650       TDockTree.PaintSite
 0001:000327B4       TDockTree.PositionDockRect
 0001:00032964       TDockTree.PruneZone
 0001:000329C0       TDockTree.RemoveControl
 0001:000329FC       TDockTree.RemoveZone
 0001:00032C60       TDockTree.ResetBounds
 0001:00032E9C       TDockTree.SaveToStream
 0001:00032D3C       TDockTree.ScaleZone
 0001:0003304C       TDockTree.SetNewBounds
 0001:00033078       TDockTree.SetReplacingControl
 0001:00033090       TDockTree.ShiftZone
 0001:000330AC       TDockTree.SplitterMouseDown
 0001:0003310C       TDockTree.SplitterMouseUp
 0001:00033184       TDockTree.UpdateAll
 0001:000331AC       TDockTree.UpdateZone
 0001:000334EC       TDockTree.WindowProc
 0001:0003132C       TDockZone.Create
 0001:00031350       TDockZone.GetChildCount
 0001:00031598       TDockZone.GetControlName
 0001:00031460       TDockZone.GetHeightWidth
 0001:00031364       TDockZone.GetLimitBegin
 0001:000313AC       TDockZone.GetLimitSize
 0001:000313F4       TDockZone.GetTopLeft
 0001:00031508       TDockZone.ResetChildren
 0001:000315DC       TDockZone.SetControlName
 0001:00031688       TDockZone.Update
 0001:0002700C       TDragControlObject.GetDragCursor
 0001:00027024       TDragControlObject.GetDragImages
 0001:00027030       TDragControlObject.HideDragImage
 0001:00027050       TDragControlObject.ShowDragImage
 0001:000271AC       TDragDockObject.AdjustDockRect
 0001:00027104       TDragDockObject.Assign
 0001:00027070       TDragDockObject.Create
 0001:000270D4       TDragDockObject.Destroy
 0001:0002722C       TDragDockObject.DrawDragDockImage
 0001:00027168       TDragDockObject.EndDrag
 0001:00027240       TDragDockObject.EraseDragDockImage
 0001:00027254       TDragDockObject.GetDragCursor
 0001:00027260       TDragDockObject.GetFrameWidth
 0001:0003102C       TDragImageList.BeginDrag
 0001:00030ED4       TDragImageList.CombineDragCursor
 0001:0003108C       TDragImageList.DragLock
 0001:00031114       TDragImageList.DragMove
 0001:000310F0       TDragImageList.DragUnlock
 0001:00031188       TDragImageList.EndDrag
 0001:00031000       TDragImageList.GetHotSpot
 0001:00031170       TDragImageList.HideDragImage
 0001:00030EBC       TDragImageList.Initialize
 0001:00030FE8       TDragImageList.SetDragCursor
 0001:00030FA0       TDragImageList.SetDragImage
 0001:00031158       TDragImageList.ShowDragImage
 0001:00026DAC       TDragObject.Assign
 0001:00026DEC       TDragObject.Capture
 0001:00026E04       TDragObject.Finished
 0001:00026F3C       TDragObject.GetDragCursor
 0001:00026F38       TDragObject.GetDragImages
 0001:00026E0C       TDragObject.GetName
 0001:00026F54       TDragObject.HideDragImage
 0001:00026F58       TDragObject.Instance
 0001:00026E48       TDragObject.MouseMsg
 0001:00026E34       TDragObject.ReleaseCapture
 0001:00026F60       TDragObject.ShowDragImage
 0002:000002E4       TerminateProcList
 0002:00001047       Test8086
 0002:00001048       Test8087
 0001:0000AD0C       TextToFloat
 0001:00037930       TextToShortCut
 0001:00017488       TFileFormatsList.Add
 0001:00017308       TFileFormatsList.Create
 0001:0001743C       TFileFormatsList.Destroy
 0001:0001751C       TFileFormatsList.FindClassName
 0001:0000F5C0       TFiler.Create
 0001:0000F608       TFiler.Destroy
 0001:0000F630       TFiler.SetRoot
 0001:0000F18C       TFileStream.Create
 0001:0000F244       TFileStream.Destroy
 0001:000148E4       TFont.Assign
 0001:000148C8       TFont.Changed
 0001:0001484C       TFont.Create
 0001:000148A0       TFont.Destroy
 0001:00014D48       TFont.GetCharset
 0001:000149B8       TFont.GetData
 0001:00014A34       TFont.GetHandle
 0001:00014C00       TFont.GetHeight
 0001:00014C30       TFont.GetName
 0001:00014D18       TFont.GetPitch
 0001:00014CA4       TFont.GetSize
 0001:00014CE0       TFont.GetStyle
 0001:00014D50       TFont.SetCharset
 0001:00014A20       TFont.SetColor
 0001:000149D0       TFont.SetData
 0001:00014BDC       TFont.SetHandle
 0001:00014C08       TFont.SetHeight
 0001:00014C48       TFont.SetName
 0001:00014D20       TFont.SetPitch
 0001:00014CC0       TFont.SetSize
 0001:00014CEC       TFont.SetStyle
 0001:0004EE64       TForm1.FormCreate
 0001:0004E8CC       TForm2.Beenden1Click
 0001:0004EACC       TForm2.Button1Click
 0001:0004EAE0       TForm2.Button2Click
 0001:0004EAA8       TForm2.Button3Click
 0001:0004EA4C       TForm2.Button4Click
 0001:0004EB84       TForm2.Edit1KeyPress
 0001:0004EBA4       TForm2.Edit1KeyUp
 0001:0004EA78       TForm2.FormClose
 0001:0004E8E4       TForm2.FormCreate
 0001:0004E854       TForm2.IFKAuswhlen1Click
 0001:0004EA24       TForm2.Info1Click
 0001:0004E87C       TForm2.ReadWriteFCTCodesndern1Click
 0001:0004E8A4       TForm2.SingelStep1Click
 0001:0004EAC4       TForm2.SpeedButton1Click
 0001:0004DC7C       TForm3.Button1Click
 0001:0004DD48       TForm3.Button2Click
 0001:0004DEE0       TForm3.ComboBox1Change
 0001:0004DC88       TForm3.FormCreate
 0001:0004D678       TForm4.Button1Click
 0001:0004D9A0       TForm4.Button2Click
 0001:0004D710       TForm4.Edit1KeyPress
 0001:0004D734       TForm4.Edit1KeyUp
 0001:0004D858       TForm4.Edit2KeyPress
 0001:0004D87C       TForm4.Edit2KeyUp
 0001:0004D684       TForm4.FormCreate
 0001:0004D14C       TForm5.Button1Click
 0001:0004D15C       TForm5.Button2Click
 0001:0004D270       TForm5.Button3Click
 0001:0004D2B0       TForm5.Button4Click
 0001:0004D2F0       TForm5.Button5Click
 0001:0004D38C       TForm5.Button6Click
 0001:0004D158       TForm5.FormCreate
 0001:0004CE84       TForm6.Button1Click
 0001:0004B328       TGlyphCache.Create
 0001:0004B36C       TGlyphCache.Destroy
 0001:0004B41C       TGlyphCache.Empty
 0001:0004B39C       TGlyphCache.GetList
 0001:0004B3FC       TGlyphCache.ReturnList
 0001:0004B2D4       TGlyphList.AddMasked
 0001:0004B294       TGlyphList.AllocateIndex
 0001:0004B214       TGlyphList.CreateSize
 0001:0004B300       TGlyphList.Delete
 0001:0004B264       TGlyphList.Destroy
 0001:00016F64       TGraphic.Changed
 0001:00016F2C       TGraphic.Create
 0001:00016FD4       TGraphic.DefineProperties
 0001:00017020       TGraphic.Equals
 0001:00017164       TGraphic.GetPalette
 0001:00017168       TGraphic.GetTransparent
 0001:0001716C       TGraphic.LoadFromFile
 0001:000171C0       TGraphic.Progress
 0001:000171E8       TGraphic.ReadData
 0001:000171F4       TGraphic.SaveToFile
 0001:0001724C       TGraphic.SetPalette
 0001:00017250       TGraphic.SetTransparent
 0001:00017260       TGraphic.WriteData
 0001:000308C4       TGraphicControl.Create
 0001:00030920       TGraphicControl.Destroy
 0001:00030A08       TGraphicControl.Paint
 0001:00030960       TGraphicControl.WMPaint
 0001:00014590       TGraphicsObject.Changed
 0001:000145A4       TGraphicsObject.Lock
 0001:000145B4       TGraphicsObject.Unlock
 0001:0000F140       THandleStream.Read
 0001:0000F160       THandleStream.Seek
 0001:0000F16C       THandleStream.SetSize
 0001:0000F150       THandleStream.Write
 0001:0002492C       THintAction.Create
 0001:00030CD8       THintWindow.ActivateHint
 0001:00030DF4       THintWindow.ActivateHintData
 0001:00030E20       THintWindow.CalcHintRect
 0001:00030C40       THintWindow.CMTextChanged
 0001:00030A0C       THintWindow.Create
 0001:00030A74       THintWindow.CreateParams
 0001:00030BD4       THintWindow.IsHintMsg
 0001:00030B38       THintWindow.Paint
 0001:00030C38       THintWindow.ReleaseHandle
 0001:00030AB0       THintWindow.WMNCHitTest
 0001:00030AB8       THintWindow.WMNCPaint
 0002:000014F6       ThousandSeparator
 0002:00001630       ThreadLock
 0002:00001648       ThreadWindow
 0001:0001AE90       TIcon.Assign
 0001:0001AE0C       TIcon.Create
 0001:0001AE60       TIcon.Destroy
 0001:0001AEF0       TIcon.Draw
 0001:0001AF30       TIcon.GetEmpty
 0001:0001AF48       TIcon.GetHandle
 0001:0001AF5C       TIcon.GetHeight
 0001:0001AF70       TIcon.GetWidth
 0001:0001AF84       TIcon.HandleNeeded
 0001:0001AFFC       TIcon.ImageNeeded
 0001:0001B254       TIcon.LoadFromClipboardFormat
 0001:0001B0B0       TIcon.LoadFromStream
 0001:0001B168       TIcon.NewImage
 0001:0001B268       TIcon.SaveToClipboardFormat
 0001:0001B228       TIcon.SaveToStream
 0001:0001B1DC       TIcon.SetHandle
 0001:0001B1F4       TIcon.SetHeight
 0001:0001B20C       TIcon.SetTransparent
 0001:0001B210       TIcon.SetWidth
 0001:0001ADC4       TIconImage.Destroy
 0001:0001ADF4       TIconImage.FreeHandle
 0001:0004A04C       TImage.CanAutoSize
 0001:00049B98       TImage.Create
 0001:00049C78       TImage.DestRect
 0001:00049C2C       TImage.Destroy
 0001:00049DD8       TImage.DoPaletteChange
 0001:00049C5C       TImage.GetPalette
 0001:00049D18       TImage.Paint
 0001:00049F34       TImage.PictureChanged
 0001:00049E70       TImage.Progress
 0001:00049EDC       TImage.SetCenter
 0001:00049EF4       TImage.SetPicture
 0001:00049F04       TImage.SetStretch
 0001:00049F1C       TImage.SetTransparent
 0002:00001508       TimeAMString
 0002:0000150C       TimePMString
 0002:00001504       TimeSeparator
 0001:0000D02C       TIntConst.Create
 0001:00004210       TInterfacedObject.AfterConstruction
 0001:0000421C       TInterfacedObject.BeforeDestruction
 0001:0000422C       TInterfacedObject.NewInstance
 0001:0000423C       TInterfacedObject.QueryInterface
 0001:00004264       TInterfacedObject._AddRef
 0001:00004278       TInterfacedObject._Release
 0001:0000D4AC       TList.Add
 0001:0000D4E0       TList.Clear
 0001:0000D4F8       TList.Delete
 0001:0000D48C       TList.Destroy
 0001:0000D55C       TList.Error
 0001:0000D594       TList.Error
 0001:0000D5E8       TList.Expand
 0001:0000D600       TList.First
 0001:0000D608       TList.Get
 0001:0000D630       TList.Grow
 0001:0000D664       TList.IndexOf
 0001:0000D684       TList.Insert
 0001:0000D6F0       TList.Last
 0001:0000D814       TList.Notify
 0001:0000D6FC       TList.Put
 0001:0000D748       TList.Remove
 0001:0000D768       TList.SetCapacity
 0001:0000D7A4       TList.SetCount
 0001:0002372C       TListBoxStrings.Add
 0001:00023988       TListBoxStrings.Clear
 0001:00023830       TListBoxStrings.Delete
 0001:0002384C       TListBoxStrings.Exchange
 0001:00023584       TListBoxStrings.Get
 0001:00023568       TListBoxStrings.GetCount
 0001:00023628       TListBoxStrings.GetObject
 0001:000239CC       TListBoxStrings.IndexOf
 0001:000237B0       TListBoxStrings.Insert
 0001:000239F4       TListBoxStrings.Move
 0001:00023698       TListBoxStrings.Put
 0001:00023710       TListBoxStrings.PutObject
 0001:00023998       TListBoxStrings.SetUpdateState
 0002:000014E0       TlsBuffer
 0001:00004E24       TlsGetValue
 0002:000014D0       TlsIndex
 0002:FFBAF010       TlsLast
 0001:00004E2C       TlsSetValue
 0001:0003BD50       TMainMenu.GetHandle
 0001:0003BD24       TMainMenu.ItemChanged
 0001:0003BC94       TMainMenu.MenuChanged
 0001:0003BCEC       TMainMenu.Merge
 0001:0003BC74       TMainMenu.SetAutoMerge
 0001:0003BD08       TMainMenu.Unmerge
 0001:0000F2FC       TMemoryStream.Clear
 0001:0000F2D0       TMemoryStream.Destroy
 0001:0000F368       TMemoryStream.Realloc
 0001:0000F314       TMemoryStream.SetCapacity
 0001:0000F33C       TMemoryStream.SetSize
 0001:0000F3EC       TMemoryStream.Write
 0001:0003B6AC       TMenu.AdjustBiDiBehavior
 0001:0003AF6C       TMenu.Create
 0001:0003B004       TMenu.Destroy
 0001:0003B1F0       TMenu.DispatchCommand
 0001:0003B20C       TMenu.DispatchPopup
 0001:0003B4BC       TMenu.DoBiDiModeChanged
 0001:0003B760       TMenu.DoChange
 0001:0003BB14       TMenu.DoGetMenuString
 0001:0003B150       TMenu.FindItem
 0001:0003BC34       TMenu.GetAutoHotkeys
 0001:0003BC54       TMenu.GetAutoLineReduction
 0001:0003B03C       TMenu.GetChildren
 0001:0003B058       TMenu.GetHandle
 0001:0003B180       TMenu.GetHelpContext
 0001:0003B7CC       TMenu.ImageListChange
 0001:0003B4B4       TMenu.IsBiDiModeStored
 0001:0003B280       TMenu.IsOwnerDraw
 0001:0003B840       TMenu.IsRightToLeft
 0001:0003B3F8       TMenu.IsShortCut
 0001:0003B778       TMenu.Loaded
 0001:0003B790       TMenu.MenuChanged
 0001:0003B814       TMenu.Notification
 0001:0003BC08       TMenu.ParentBiDiModeChanged
 0001:0003BBE0       TMenu.ParentBiDiModeChanged
 0001:0003B99C       TMenu.ProcessMenuChar
 0001:0003BC44       TMenu.SetAutoHotkeys
 0001:0003BC64       TMenu.SetAutoLineReduction
 0001:0003BBBC       TMenu.SetBiDiMode
 0001:0003B064       TMenu.SetChildOrder
 0001:0003B7D8       TMenu.SetImages
 0001:0003B69C       TMenu.SetOwnerDraw
 0001:0003BBD0       TMenu.SetParentBiDiMode
 0001:0003B728       TMenu.SetWindowHandle
 0001:0003B618       TMenu.UpdateImage
 0001:0003B0A0       TMenu.UpdateItems
 0001:00037BB0       TMenuActionLink.AssignClient
 0001:00037BCC       TMenuActionLink.IsCaptionLinked
 0001:00037C04       TMenuActionLink.IsCheckedLinked
 0001:00037C34       TMenuActionLink.IsEnabledLinked
 0001:00037C64       TMenuActionLink.IsHelpContextLinked
 0001:00037C94       TMenuActionLink.IsHintLinked
 0001:00037CC8       TMenuActionLink.IsImageIndexLinked
 0001:00037D5C       TMenuActionLink.IsOnExecuteLinked
 0001:00037CF8       TMenuActionLink.IsShortCutLinked
 0001:00037D2C       TMenuActionLink.IsVisibleLinked
 0001:00037D84       TMenuActionLink.SetCaption
 0001:00037DA4       TMenuActionLink.SetChecked
 0001:00037DC4       TMenuActionLink.SetEnabled
 0001:00037DE4       TMenuActionLink.SetHelpContext
 0001:00037E00       TMenuActionLink.SetHint
 0001:00037E24       TMenuActionLink.SetImageIndex
 0001:00037E84       TMenuActionLink.SetOnExecute
 0001:00037E44       TMenuActionLink.SetShortCut
 0001:00037E64       TMenuActionLink.SetVisible
 0001:0003A384       TMenuItem.ActionChange
 0001:0003A110       TMenuItem.Add
 0001:0003989C       TMenuItem.AdvancedDrawItem
 0001:00037FE0       TMenuItem.AppendTo
 0001:0003A5B4       TMenuItem.AssignTo
 0001:0003A088       TMenuItem.Click
 0001:00037EB0       TMenuItem.Create
 0001:000384D8       TMenuItem.DefineProperties
 0001:0003A018       TMenuItem.Delete
 0001:00037F2C       TMenuItem.Destroy
 0001:0003A46C       TMenuItem.DoActionChange
 0001:0003851C       TMenuItem.DoDrawText
 0001:00038730       TMenuItem.DrawItem
 0001:00039DC4       TMenuItem.GetAction
 0001:00039DD4       TMenuItem.GetActionLinkClass
 0001:0003AF14       TMenuItem.GetAutoHotkeys
 0001:0003AF40       TMenuItem.GetAutoLineReduction
 0001:0003A1E8       TMenuItem.GetBitmap
 0001:00039EA4       TMenuItem.GetChildren
 0001:00039DDC       TMenuItem.GetCount
 0001:0003848C       TMenuItem.GetHandle
 0001:000399B4       TMenuItem.GetImageList
 0001:00039DEC       TMenuItem.GetItem
 0001:00039E44       TMenuItem.GetMenuIndex
 0001:0003A2E0       TMenuItem.GetParentComponent
 0001:0003A348       TMenuItem.GetParentMenu
 0001:00039C30       TMenuItem.HasParent
 0001:0003A69C       TMenuItem.ImageListChange
 0001:0003A0F8       TMenuItem.IndexOf
 0001:00039F58       TMenuItem.InitiateAction
 0001:0003A2B4       TMenuItem.InitiateActions
 0001:00039F68       TMenuItem.Insert
 0001:0003A8F8       TMenuItem.InternalRethinkHotkeys
 0001:0003ADC8       TMenuItem.InternalRethinkLines
 0001:0003A494       TMenuItem.IsCaptionStored
 0001:0003A4B4       TMenuItem.IsCheckedStored
 0001:0003A4D4       TMenuItem.IsEnabledStored
 0001:0003A514       TMenuItem.IsHelpContextStored
 0001:0003A4F4       TMenuItem.IsHintStored
 0001:0003A534       TMenuItem.IsImageIndexStored
 0001:0003ADA4       TMenuItem.IsLine
 0001:0003A594       TMenuItem.IsOnClickStored
 0001:0003A554       TMenuItem.IsShortCutStored
 0001:0003A574       TMenuItem.IsVisibleStored
 0001:0003836C       TMenuItem.Loaded
 0001:00039A30       TMenuItem.MeasureItem
 0001:0003A154       TMenuItem.MenuChanged
 0001:00038348       TMenuItem.MergeWith
 0001:0003A62C       TMenuItem.Notification
 0001:00038280       TMenuItem.PopulateMenu
 0001:000382F0       TMenuItem.ReadShortCutText
 0001:000383A8       TMenuItem.RebuildHandle
 0001:0003A12C       TMenuItem.Remove
 0001:0003A210       TMenuItem.SetAction
 0001:0003AD94       TMenuItem.SetAutoHotkeys
 0001:0003AF04       TMenuItem.SetAutoLineReduction
 0001:0003A280       TMenuItem.SetBitmap
 0001:00039C34       TMenuItem.SetBreak
 0001:00039C44       TMenuItem.SetCaption
 0001:00039CB4       TMenuItem.SetChecked
 0001:00039EDC       TMenuItem.SetChildOrder
 0001:00039EFC       TMenuItem.SetDefault
 0001:00039D08       TMenuItem.SetEnabled
 0001:00039D80       TMenuItem.SetGroupIndex
 0001:00039E34       TMenuItem.SetImageIndex
 0001:00039E5C       TMenuItem.SetMenuIndex
 0001:0003A2F4       TMenuItem.SetParentComponent
 0001:0003A358       TMenuItem.SetRadioItem
 0001:00039E10       TMenuItem.SetShortCut
 0001:0003A660       TMenuItem.SetSubMenuImages
 0001:00039E24       TMenuItem.SetVisible
 0001:0003A190       TMenuItem.SubItemChanged
 0001:00039C6C       TMenuItem.TurnSiblingsOff
 0001:0003A6D0       TMenuItem.UpdateItems
 0001:0003842C       TMenuItem.VerifyGroupIndex
 0001:0003C540       TMenuItemStack.ClearItem
 0001:00017C80       TMetafile.Assign
 0001:00017C08       TMetafile.Create
 0001:00017C50       TMetafile.Destroy
 0001:00017D14       TMetafile.Draw
 0001:00017DA8       TMetafile.GetEmpty
 0001:00017DB0       TMetafile.GetHeight
 0001:00017E14       TMetafile.GetPalette
 0001:00017EA0       TMetafile.GetWidth
 0001:00018784       TMetafile.LoadFromClipboardFormat
 0001:00017F04       TMetafile.LoadFromStream
 0001:00017F58       TMetafile.NewImage
 0001:00017F80       TMetafile.ReadData
 0001:00017FEC       TMetafile.ReadEMFStream
 0001:000180BC       TMetafile.ReadWMFStream
 0001:00018808       TMetafile.SaveToClipboardFormat
 0001:0001823C       TMetafile.SaveToFile
 0001:000182C8       TMetafile.SaveToStream
 0001:000182E4       TMetafile.SetHeight
 0001:00018358       TMetafile.SetMMHeight
 0001:00018394       TMetafile.SetMMWidth
 0001:000183D0       TMetafile.SetTransparent
 0001:000183D4       TMetafile.SetWidth
 0001:00018448       TMetafile.TestEMF
 0001:000184A8       TMetafile.UniqueImage
 0001:0001852C       TMetafile.WriteData
 0001:000185B0       TMetafile.WriteEMFStream
 0001:0001863C       TMetafile.WriteWMFStream
 0001:00017BC8       TMetafileImage.Destroy
 0001:00017C04       TMetafileImage.FreeHandle
 0001:000453A8       TMonitor.GetHeight
 0001:00045388       TMonitor.GetLeft
 0001:000453CC       TMonitor.GetTop
 0001:000453EC       TMonitor.GetWidth
 0001:000338CC       TMouse.Create
 0001:0003395C       TMouse.Destroy
 0001:0003398C       TMouse.GetCapture
 0001:00033994       TMouse.GetMouseData
 0001:000339B0       TMouse.GetNativeData
 0001:000339E0       TMouse.GetRegisteredData
 0001:00033A08       TMouse.SetCapture
 0001:00033A30       TMouse.SettingChanged
 0001:0000A174       TMultiReadExclusiveWriteSynchronizer.BeginWrite
 0001:0000A090       TMultiReadExclusiveWriteSynchronizer.Create
 0001:0000A0F8       TMultiReadExclusiveWriteSynchronizer.Destroy
 0001:0000A1C0       TMultiReadExclusiveWriteSynchronizer.EndWrite
 0001:0000A138       TMultiReadExclusiveWriteSynchronizer.WriterIsOnlyReader
 0001:00001E88       TObject.AfterConstruction
 0001:00001E8C       TObject.BeforeDestruction
 0001:00001E78       TObject.ClassInfo
 0001:00001BA4       TObject.ClassName
 0001:00001BB8       TObject.ClassNameIs
 0001:00001BE0       TObject.ClassParent
 0001:00001BA0       TObject.ClassType
 0001:00001C28       TObject.Create
 0001:00001E84       TObject.DefaultHandler
 0001:00001C48       TObject.Destroy
 0001:00001E90       TObject.Dispatch
 0001:00001F08       TObject.FieldAddress
 0001:00001C58       TObject.Free
 0001:00001C00       TObject.FreeInstance
 0001:00001CEC       TObject.GetInterface
 0001:00001D8C       TObject.GetInterfaceEntry
 0001:00001E64       TObject.InheritsFrom
 0001:00001C64       TObject.InitInstance
 0001:00001EB8       TObject.MethodAddress
 0001:00001BEC       TObject.NewInstance
 0001:00001E7C       TObject.SafeCallException
 0001:00003C68       ToLongPath
 0001:0001B950       TOrderedList.Create
 0001:0001B994       TOrderedList.Destroy
 0001:0001B9C4       TOrderedList.PeekItem
 0001:0001B940       TOrderedList.Pop
 0001:0001B9D8       TOrderedList.PopItem
 0001:0001B948       TOrderedList.Push
 0001:0001B444       TPatternManager.AllocPattern
 0001:0001B3C8       TPatternManager.Create
 0001:0001B4F8       TPatternManager.CreateBitmap
 0001:0001B400       TPatternManager.Destroy
 0001:0001B5F8       TPatternManager.FreePatterns
 0001:0001B42C       TPatternManager.Lock
 0001:0001B438       TPatternManager.Unlock
 0001:00014DE4       TPen.Assign
 0001:00014D78       TPen.Create
 0001:00014DBC       TPen.Destroy
 0001:00014F04       TPen.GetColor
 0001:00014E9C       TPen.GetData
 0001:00014F34       TPen.GetHandle
 0001:00014FE0       TPen.GetStyle
 0001:00015010       TPen.GetWidth
 0001:00014F0C       TPen.SetColor
 0001:00014EB4       TPen.SetData
 0001:00014FCC       TPen.SetMode
 0001:00014FE8       TPen.SetStyle
 0001:00015018       TPen.SetWidth
 0001:0000DBC0       TPersistent.Assign
 0001:0000DBD4       TPersistent.AssignError
 0001:0000DCA4       TPersistent.AssignTo
 0001:0000DCAC       TPersistent.DefineProperties
 0001:0000DB94       TPersistent.Destroy
 0001:0000DCB0       TPersistent.GetNamePath
 0001:0000DD60       TPersistent.GetOwner
 0001:000178B4       TPicture.Assign
 0001:000177D0       TPicture.AssignTo
 0001:00017910       TPicture.Changed
 0001:00017760       TPicture.Create
 0001:00017B4C       TPicture.DefineProperties
 0001:000177A0       TPicture.Destroy
 0001:00017BB0       TPicture.GetHeight
 0001:00017B98       TPicture.GetWidth
 0001:00017934       TPicture.Progress
 0001:0001795C       TPicture.ReadData
 0001:00017804       TPicture.SetGraphic
 0001:00017A74       TPicture.WriteData
 0001:0003C2E8       TPopupList.Add
 0001:0003BD60       TPopupList.MainWndProc
 0001:0003C310       TPopupList.Remove
 0001:0003BDAC       TPopupList.WndProc
 0001:0003C32C       TPopupMenu.Create
 0001:0003C3A0       TPopupMenu.Destroy
 0001:0003C3D4       TPopupMenu.DoPopup
 0001:0003C3E8       TPopupMenu.GetHelpContext
 0001:0003C48C       TPopupMenu.Popup
 0001:0003C3F8       TPopupMenu.SetBiDiModeFromPopupControl
 0001:0003C3F0       TPopupMenu.SetHelpContext
 0001:0003C440       TPopupMenu.UseRightToLeftAlignment
 0001:0000F6A8       TPropFixup.Create
 0001:0000F700       TPropFixup.MakeGlobalReference
 0001:000057E0       TrackPopupMenu
 0001:000234A8       TRadioButton.CMCtl3DChanged
 0001:000234B0       TRadioButton.CMDialogChar
 0001:00023534       TRadioButton.CNCommand
 0001:0002328C       TRadioButton.Create
 0001:00023424       TRadioButton.CreateParams
 0001:0002347C       TRadioButton.CreateWnd
 0001:000232EC       TRadioButton.GetChecked
 0001:000232F4       TRadioButton.GetControlsAlignment
 0001:00023320       TRadioButton.SetAlignment
 0001:0002339C       TRadioButton.SetChecked
 0001:00008A48       TranslateDateFormat
 0001:000057E8       TranslateMDISysAccel
 0001:000057F0       TranslateMessage
 0001:00015F50       TransparentStretchBlt
 0001:00044ABC       TraverseClients
 0001:00044D04       TraverseClients
 0001:00044C04       TraverseClients
 0001:0002E8E4       TraverseControls
 0001:0000FC00       TReader.CheckValue
 0001:0000FC58       TReader.DefineBinaryProperty
 0001:0000FC24       TReader.DefineProperty
 0001:0000FBC4       TReader.Destroy
 0001:0000FE4C       TReader.DoFixupReferences
 0001:0000FD34       TReader.EndOfList
 0001:0000FD48       TReader.Error
 0001:00011B5C       TReader.FindAncestorComponent
 0001:00011C54       TReader.FindComponentClass
 0001:0000FD68       TReader.FindMethod
 0001:0000FF70       TReader.FlushBuffer
 0001:0000FF90       TReader.FreeFixups
 0001:0000FFCC       TReader.GetPosition
 0001:0000FFE4       TReader.NextValue
 0001:0000FFF4       TReader.PropertyError
 0001:00010000       TReader.Read
 0001:00010088       TReader.ReadBoolean
 0001:0001004C       TReader.ReadBuffer
 0001:0001009C       TReader.ReadChar
 0001:00010120       TReader.ReadCollection
 0001:000104A0       TReader.ReadComponent
 0001:00010838       TReader.ReadCurrency
 0001:00010678       TReader.ReadData
 0001:000106E8       TReader.ReadDataInner
 0001:00010884       TReader.ReadDate
 0001:000107B8       TReader.ReadFloat
 0001:000108C4       TReader.ReadIdent
 0001:00010A30       TReader.ReadInt64
 0001:000109C4       TReader.ReadInteger
 0001:00010A74       TReader.ReadListBegin
 0001:00010A7C       TReader.ReadListEnd
 0001:00010A84       TReader.ReadPrefix
 0001:00010BE0       TReader.ReadProperty
 0001:00011034       TReader.ReadPropValue
 0001:0001133C       TReader.ReadRootComponent
 0001:000115E0       TReader.ReadSet
 0001:0001169C       TReader.ReadSignature
 0001:000107F8       TReader.ReadSingle
 0001:000116C0       TReader.ReadStr
 0001:000116FC       TReader.ReadString
 0001:000117A4       TReader.ReadValue
 0001:0001175C       TReader.ReadWideString
 0001:00011C14       TReader.ReferenceName
 0001:00011C2C       TReader.SetName
 0001:00011AB4       TReader.SkipComponent
 0001:00011A6C       TReader.SkipProperty
 0001:000117B8       TReader.SkipSetBody
 0001:00011904       TReader.SkipValue
 0002:000007F8       TreeStreamEndFlag
 0001:00013E78       TResourceManager.AllocResource
 0001:00014084       TResourceManager.AssignResource
 0001:0001400C       TResourceManager.ChangeResource
 0001:00013E00       TResourceManager.Create
 0001:00013E3C       TResourceManager.Destroy
 0001:00013F5C       TResourceManager.FreeResource
 0001:00013E60       TResourceManager.Lock
 0001:00013E6C       TResourceManager.Unlock
 0001:0000F43C       TResourceStream.Create
 0001:0000F570       TResourceStream.Destroy
 0001:0000F504       TResourceStream.Initialize
 0001:0000F5A8       TResourceStream.Write
 0001:00001018       TryHarder
 0001:0004570C       TScreen.AddForm
 0001:0004608C       TScreen.AlignForm
 0001:00046004       TScreen.AlignForms
 0001:00045440       TScreen.Create
 0001:0004578C       TScreen.CreateCursors
 0001:00045568       TScreen.Destroy
 0001:000457E8       TScreen.DestroyCursors
 0001:00045C20       TScreen.DisableAlign
 0001:00045C28       TScreen.EnableAlign
 0001:00045AB4       TScreen.GetCursors
 0001:000456B8       TScreen.GetCustomFormCount
 0001:000456A4       TScreen.GetCustomForms
 0001:00045A98       TScreen.GetDataModule
 0001:00045AAC       TScreen.GetDataModuleCount
 0001:00045A6C       TScreen.GetDefaultIME
 0001:00045640       TScreen.GetDesktopHeight
 0001:00045634       TScreen.GetDesktopLeft
 0001:00045628       TScreen.GetDesktopTop
 0001:0004564C       TScreen.GetDesktopWidth
 0001:00045688       TScreen.GetForm
 0001:0004569C       TScreen.GetFormCount
 0001:00045610       TScreen.GetHeight
 0001:0004586C       TScreen.GetImes
 0001:00045B6C       TScreen.GetMetricSettings
 0001:00045658       TScreen.GetMonitor
 0001:0004566C       TScreen.GetMonitorCount
 0001:0004561C       TScreen.GetWidth
 0001:00045A88       TScreen.IconFontChanged
 0001:00045844       TScreen.InsertCursor
 0001:00045C48       TScreen.Realign
 0001:00045744       TScreen.RemoveForm
 0001:00046114       TScreen.ResetFonts
 0001:00045ADC       TScreen.SetCursor
 0001:000456C0       TScreen.UpdateLastActive
 0001:00040860       TScrollBox.CMCtl3DChanged
 0001:00040794       TScrollBox.Create
 0001:000407F4       TScrollBox.CreateParams
 0001:00040844       TScrollBox.SetBorderStyle
 0001:00040858       TScrollBox.WMNCHitTest
 0001:00040690       TScrollingWinControl.AdjustClientRect
 0001:00040064       TScrollingWinControl.AlignControls
 0001:00040084       TScrollingWinControl.AutoScrollEnabled
 0001:00040334       TScrollingWinControl.AutoScrollInView
 0001:000401BC       TScrollingWinControl.CalcAutoRange
 0001:00040544       TScrollingWinControl.ChangeScale
 0001:00040704       TScrollingWinControl.CMBiDiModeChanged
 0001:0003FF84       TScrollingWinControl.Create
 0001:00040028       TScrollingWinControl.CreateParams
 0001:00040038       TScrollingWinControl.CreateWnd
 0001:0003FFEC       TScrollingWinControl.Destroy
 0001:000400A4       TScrollingWinControl.DoFlipChildren
 0001:00040568       TScrollingWinControl.Resizing
 0001:000404A0       TScrollingWinControl.ScaleScrollBars
 0001:0004034C       TScrollingWinControl.ScrollInView
 0001:000401E0       TScrollingWinControl.SetAutoScroll
 0001:0004021C       TScrollingWinControl.SetHorzScrollBar
 0001:0004022C       TScrollingWinControl.SetVertScrollBar
 0001:0004023C       TScrollingWinControl.UpdateScrollBars
 0001:00040648       TScrollingWinControl.WMHScroll
 0001:0004056C       TScrollingWinControl.WMSize
 0001:0004066C       TScrollingWinControl.WMVScroll
 0001:00018BF4       TSharedImage.Reference
 0001:00018BF8       TSharedImage.Release
 0001:00026CB8       TSiteList.AddSite
 0001:00026D14       TSiteList.Clear
 0001:00026C5C       TSiteList.Find
 0001:00026D48       TSiteList.GetTopSite
 0001:000284FC       TSizeConstraints.AssignTo
 0001:000285F0       TSizeConstraints.Change
 0001:000284C0       TSizeConstraints.Create
 0001:00028548       TSizeConstraints.SetConstraints
 0001:0004CB3C       TSpeedButton.ActionChange
 0001:0004C6D8       TSpeedButton.Click
 0001:0004C90C       TSpeedButton.CMButtonPressed
 0001:0004C958       TSpeedButton.CMDialogChar
 0001:0004C8DC       TSpeedButton.CMEnabledChanged
 0001:0004C9F0       TSpeedButton.CMFontChanged
 0001:0004CA24       TSpeedButton.CMMouseEnter
 0001:0004CA6C       TSpeedButton.CMMouseLeave
 0001:0004CA00       TSpeedButton.CMSysColorChange
 0001:0004C9F8       TSpeedButton.CMTextChanged
 0001:0004C128       TSpeedButton.Create
 0001:0004C1E4       TSpeedButton.Destroy
 0001:0004C6F4       TSpeedButton.GetGlyph
 0001:0004C718       TSpeedButton.GetNumGlyphs
 0001:0004C6E0       TSpeedButton.GetPalette
 0001:0004C750       TSpeedButton.GlyphChanged
 0001:0004C4C8       TSpeedButton.Loaded
 0001:0004C4F4       TSpeedButton.MouseDown
 0001:0004C54C       TSpeedButton.MouseMove
 0001:0004C5EC       TSpeedButton.MouseUp
 0001:0004C21C       TSpeedButton.Paint
 0001:0004C8A4       TSpeedButton.SetAllowAllUp
 0001:0004C790       TSpeedButton.SetDown
 0001:0004C7FC       TSpeedButton.SetFlat
 0001:0004C700       TSpeedButton.SetGlyph
 0001:0004C810       TSpeedButton.SetGroupIndex
 0001:0004C824       TSpeedButton.SetLayout
 0001:0004C838       TSpeedButton.SetMargin
 0001:0004C724       TSpeedButton.SetNumGlyphs
 0001:0004C854       TSpeedButton.SetSpacing
 0001:0004C868       TSpeedButton.SetTransparent
 0001:0004C758       TSpeedButton.UpdateExclusive
 0001:0004C464       TSpeedButton.UpdateTracking
 0001:0004C8B8       TSpeedButton.WMLButtonDblClk
 0001:0001B9F8       TStack.PushItem
 0001:0000F02C       TStream.CopyFrom
 0001:0000EF68       TStream.GetPosition
 0001:0000EF84       TStream.GetSize
 0001:0000EFBC       TStream.ReadBuffer
 0001:0000F0E0       TStream.ReadComponent
 0001:0000EF78       TStream.SetPosition
 0001:0000EFB8       TStream.SetSize
 0001:0000EFF4       TStream.WriteBuffer
 0001:00012D5C       TStreamAdapter.Clone
 0001:00012CAC       TStreamAdapter.Commit
 0001:00012AC4       TStreamAdapter.CopyTo
 0001:00012898       TStreamAdapter.Create
 0001:000128E0       TStreamAdapter.Destroy
 0001:00012CC4       TStreamAdapter.LockRegion
 0001:00012918       TStreamAdapter.Read
 0001:00012CB8       TStreamAdapter.Revert
 0001:000129E8       TStreamAdapter.Seek
 0001:00012A60       TStreamAdapter.SetSize
 0001:00012CDC       TStreamAdapter.Stat
 0001:00012CD0       TStreamAdapter.UnlockRegion
 0001:00012980       TStreamAdapter.Write
 0001:0000EA0C       TStringList.Add
 0001:0000EA64       TStringList.Changed
 0001:0000EA80       TStringList.Changing
 0001:0000EA9C       TStringList.Clear
 0001:0000EF34       TStringList.CustomSort
 0001:0000EAD4       TStringList.Delete
 0001:0000E9B0       TStringList.Destroy
 0001:0000EB38       TStringList.Exchange
 0001:0000EB90       TStringList.ExchangeItems
 0001:0000EBB4       TStringList.Find
 0001:0000EC1C       TStringList.Get
 0001:0000EC50       TStringList.GetCapacity
 0001:0000EC54       TStringList.GetCount
 0001:0000EC58       TStringList.GetObject
 0001:0000EC80       TStringList.Grow
 0001:0000ECB4       TStringList.IndexOf
 0001:0000ECEC       TStringList.Insert
 0001:0000ED34       TStringList.InsertItem
 0001:0000ED9C       TStringList.Put
 0001:0000EDF4       TStringList.PutObject
 0001:0000EE30       TStringList.QuickSort
 0001:0000EEC4       TStringList.SetCapacity
 0001:0000EEE0       TStringList.SetSorted
 0001:0000EEFC       TStringList.SetUpdateState
 0001:0000EF24       TStringList.Sort
 0001:0000DE08       TStrings.Add
 0001:0000DE2C       TStrings.AddObject
 0001:0000DE50       TStrings.AddStrings
 0001:0000DF08       TStrings.Assign
 0001:0000DF78       TStrings.BeginUpdate
 0001:0000DFE8       TStrings.DefineProperties
 0001:0000DDD8       TStrings.Destroy
 0001:0000E034       TStrings.EndUpdate
 0001:0000E048       TStrings.Equals
 0001:0000E12C       TStrings.Error
 0001:0000E0F4       TStrings.Error
 0001:0000E184       TStrings.Exchange
 0001:0000E26C       TStrings.GetCapacity
 0001:0000E274       TStrings.GetObject
 0001:0000E278       TStrings.GetText
 0001:0000E2CC       TStrings.GetTextStr
 0001:0000E3B4       TStrings.IndexOf
 0001:0000E434       TStrings.IndexOfObject
 0001:0000E468       TStrings.InsertObject
 0001:0000E498       TStrings.LoadFromFile
 0001:0000E4EC       TStrings.LoadFromStream
 0001:0000E598       TStrings.Move
 0001:0000E648       TStrings.Put
 0001:0000E678       TStrings.PutObject
 0001:0000E67C       TStrings.ReadData
 0001:0000E72C       TStrings.SaveToFile
 0001:0000E784       TStrings.SaveToStream
 0001:0000E7E0       TStrings.SetCapacity
 0001:0000E7E4       TStrings.SetStringsAdapter
 0001:0000E818       TStrings.SetText
 0001:0000E868       TStrings.SetTextStr
 0001:0000E928       TStrings.SetUpdateState
 0001:0000E92C       TStrings.WriteData
 0001:0000D8E8       TThreadList.Add
 0001:0000D818       TThreadList.Create
 0001:0000D86C       TThreadList.Destroy
 0001:0000D970       TThreadList.LockList
 0001:0000D984       TThreadList.Remove
 0001:0000D9D4       TThreadList.UnlockList
 0001:00023334       TurnSiblingsOff
 0001:000302E4       TWinControl.ActionChange
 0001:0002C81C       TWinControl.AddBiDiModeExStyle
 0001:0002BB68       TWinControl.AdjustClientRect
 0001:0002F94C       TWinControl.AdjustSize
 0001:0002C1FC       TWinControl.AlignControl
 0001:0002C110       TWinControl.AlignControls
 0001:0003034C       TWinControl.AssignTo
 0001:0002C748       TWinControl.Broadcast
 0001:0002FECC       TWinControl.CalcConstraints
 0001:0003037C       TWinControl.CanAutoSize
 0001:0002F7AC       TWinControl.CanFocus
 0001:0002FE44       TWinControl.CanResize
 0001:0002F358       TWinControl.ChangeScale
 0001:0002EBE4       TWinControl.CMBiDiModeChanged
 0001:0002EE3C       TWinControl.CMBorderChanged
 0001:0002ECB8       TWinControl.CMChanged
 0001:0002ECCC       TWinControl.CMChildKey
 0001:0002ED98       TWinControl.CMColorChanged
 0001:0002EF68       TWinControl.CMControlListChange
 0001:0002EE6C       TWinControl.CMCtl3DChanged
 0001:0002EDFC       TWinControl.CMCursorChanged
 0001:0002EC98       TWinControl.CMDesignHitTest
 0001:0002ECE8       TWinControl.CMDialogChar
 0001:0002ECE0       TWinControl.CMDialogKey
 0001:0002E2A8       TWinControl.CMDockClient
 0001:0002EF0C       TWinControl.CMDrag
 0001:0002ED50       TWinControl.CMEnabledChanged
 0001:0002EC1C       TWinControl.CMEnter
 0001:0002EC8C       TWinControl.CMExit
 0001:0002E3C0       TWinControl.CMFloat
 0001:0002ECF0       TWinControl.CMFocusChanged
 0001:0002EEFC       TWinControl.CMFontChange
 0001:0002EDC0       TWinControl.CMFontChanged
 0001:0002F6F0       TWinControl.CMInvalidate
 0001:0002E690       TWinControl.CMMouseWheel
 0001:0002EEAC       TWinControl.CMParentCtl3DChanged
 0001:0002CD88       TWinControl.CMRecreateWnd
 0001:0002EBCC       TWinControl.CMShowHintChanged
 0001:0002ED28       TWinControl.CMShowingChanged
 0001:0002EEEC       TWinControl.CMSysColorChange
 0001:0002EF7C       TWinControl.CMSysFontChanged
 0001:0002EF04       TWinControl.CMTimeChange
 0001:0002E398       TWinControl.CMUnDockClient
 0001:0002ECF8       TWinControl.CMVisibleChanged
 0001:0002EEF4       TWinControl.CMWinIniChange
 0001:0002F158       TWinControl.CNChar
 0001:0002F02C       TWinControl.CNKeyDown
 0001:0002F104       TWinControl.CNKeyUp
 0001:0002F200       TWinControl.CNSysChar
 0001:0002F1A4       TWinControl.CNSysKeyDown
 0001:000302A8       TWinControl.ConstrainedResize
 0001:0002C4D4       TWinControl.ContainsControl
 0001:0002D030       TWinControl.ControlAtPos
 0001:0002B82C       TWinControl.Create
 0001:0002E188       TWinControl.CreateDockManager
 0001:0002CC90       TWinControl.CreateHandle
 0001:0002C884       TWinControl.CreateParams
 0001:0002C7B0       TWinControl.CreateSubClass
 0001:0002CB48       TWinControl.CreateWindowHandle
 0001:0002C9B0       TWinControl.CreateWnd
 0001:0002D338       TWinControl.DefaultHandler
 0001:0002B948       TWinControl.Destroy
 0001:0002CD28       TWinControl.DestroyHandle
 0001:0002CBE4       TWinControl.DestroyWindowHandle
 0001:0002CB8C       TWinControl.DestroyWnd
 0001:0002C290       TWinControl.DisableAlign
 0001:0002DF2C       TWinControl.DoAddDockClient
 0001:0002DF78       TWinControl.DockDrop
 0001:0002DFFC       TWinControl.DockOver
 0001:0002DFC8       TWinControl.DoDockOver
 0001:0002DF38       TWinControl.DoEnter
 0001:0002DF58       TWinControl.DoExit
 0001:0002C2C0       TWinControl.DoFlipChildren
 0001:0002E46C       TWinControl.DoKeyDown
 0001:0002E604       TWinControl.DoKeyPress
 0001:0002E53C       TWinControl.DoKeyUp
 0001:0002E788       TWinControl.DoMouseWheel
 0001:0002E84C       TWinControl.DoMouseWheelDown
 0001:0002E898       TWinControl.DoMouseWheelUp
 0001:0002DF34       TWinControl.DoRemoveDockClient
 0001:0002E03C       TWinControl.DoUnDock
 0001:0002C298       TWinControl.EnableAlign
 0001:0002FC84       TWinControl.FindNextControl
 0001:0002BA1C       TWinControl.FixupTabList
 0001:0002C394       TWinControl.FlipChildren
 0001:0002F824       TWinControl.Focused
 0001:00030324       TWinControl.GetActionLinkClass
 0001:0002FDBC       TWinControl.GetChildren
 0001:0002F914       TWinControl.GetClientOrigin
 0001:0002F934       TWinControl.GetClientRect
 0001:0002C6EC       TWinControl.GetControl
 0001:0002C728       TWinControl.GetControlCount
 0001:0002F880       TWinControl.GetControlExtents
 0001:0002F68C       TWinControl.GetDeviceContext
 0001:0002E0B8       TWinControl.GetDockClientCount
 0001:0002E0CC       TWinControl.GetDockClients
 0001:0002F86C       TWinControl.GetHandle
 0001:0002E0F0       TWinControl.GetSiteInfo
 0001:0002FA00       TWinControl.GetTabOrder
 0001:0002FC2C       TWinControl.GetTabOrderList
 0001:0002E14C       TWinControl.GetVisibleDockClientCount
 0001:0002FB68       TWinControl.HandleAllocated
 0001:0002F848       TWinControl.HandleNeeded
 0001:0002C508       TWinControl.Insert
 0001:0002C59C       TWinControl.InsertControl
 0001:0002F6E0       TWinControl.Invalidate
 0001:0002F774       TWinControl.InvalidateFrame
 0001:0002D0C4       TWinControl.IsControlMouseMsg
 0001:0002F9D0       TWinControl.IsCtl3DStored
 0001:0003032C       TWinControl.IsHelpContextStored
 0001:0002EF98       TWinControl.IsMenuKey
 0001:0002E444       TWinControl.KeyDown
 0001:0002E5E4       TWinControl.KeyPress
 0001:0002E514       TWinControl.KeyUp
 0001:0002CF00       TWinControl.MainWndProc
 0001:0002E744       TWinControl.MouseWheelHandler
 0001:0002C788       TWinControl.NotifyControls
 0001:0002D5C0       TWinControl.PaintControls
 0001:0002D468       TWinControl.PaintHandler
 0001:0002D598       TWinControl.PaintWindow
 0001:0002EB24       TWinControl.PaletteChanged
 0001:0002CC48       TWinControl.PrecedingWindow
 0001:0002BAF0       TWinControl.ReadState
 0001:0002C2B8       TWinControl.Realign
 0001:0002CD70       TWinControl.RecreateWnd
 0001:0002E094       TWinControl.ReloadDockedControl
 0001:0002C554       TWinControl.Remove
 0001:0002C670       TWinControl.RemoveControl
 0001:0002C4E8       TWinControl.RemoveFocus
 0001:0002F75C       TWinControl.Repaint
 0001:0002DE94       TWinControl.ResetIme
 0001:0002F3B8       TWinControl.ScaleBy
 0001:0002F310       TWinControl.ScaleControls
 0001:0002F464       TWinControl.ScrollBy
 0001:0002FD90       TWinControl.SelectNext
 0001:0002F98C       TWinControl.SetBorderWidth
 0001:0002F234       TWinControl.SetBounds
 0001:0002FE04       TWinControl.SetChildOrder
 0001:0002F9AC       TWinControl.SetCtl3D
 0001:0002E1F4       TWinControl.SetDockSite
 0001:0002F7EC       TWinControl.SetFocus
 0001:0002DDA8       TWinControl.SetIme
 0001:0002F9DC       TWinControl.SetParentCtl3D
 0001:0002FA80       TWinControl.SetTabOrder
 0001:0002FA98       TWinControl.SetTabStop
 0001:0002FAF8       TWinControl.SetUseDockManager
 0001:0002F62C       TWinControl.SetZOrder
 0001:0002F554       TWinControl.SetZOrderPosition
 0001:0002F53C       TWinControl.ShowControl
 0001:0002F740       TWinControl.Update
 0001:0002FB74       TWinControl.UpdateBounds
 0001:0002CEC0       TWinControl.UpdateControlState
 0001:0002CDC4       TWinControl.UpdateShowing
 0001:0002FA24       TWinControl.UpdateTabOrder
 0001:0002E670       TWinControl.WMChar
 0001:0002EA3C       TWinControl.WMCharToItem
 0001:0002D950       TWinControl.WMCommand
 0001:0002DA24       TWinControl.WMCompareItem
 0001:00030858       TWinControl.WMContextMenu
 0001:0002DA48       TWinControl.WMDeleteItem
 0001:0002EAB0       TWinControl.WMDestroy
 0001:0002DA6C       TWinControl.WMDrawItem
 0001:0002DAB4       TWinControl.WMEraseBkgnd
 0001:0002D9C4       TWinControl.WMFontChange
 0001:0002D9E4       TWinControl.WMHScroll
 0001:0002DD94       TWinControl.WMIMEEndComp
 0001:0002DD80       TWinControl.WMIMEStartComp
 0001:0002E4D4       TWinControl.WMKeyDown
 0001:0002E5A4       TWinControl.WMKeyUp
 0001:0002DD6C       TWinControl.WMKillFocus
 0001:0002DA90       TWinControl.WMMeasureItem
 0001:0002E6EC       TWinControl.WMMouseWheel
 0001:0002DC44       TWinControl.WMMove
 0001:00030540       TWinControl.WMNCCalcSize
 0001:0002EAE4       TWinControl.WMNCDestroy
 0001:0002EB00       TWinControl.WMNCHitTest
 0001:000305D0       TWinControl.WMNCPaint
 0001:0002D970       TWinControl.WMNotify
 0001:0002D7F0       TWinControl.WMPaint
 0001:0002EBAC       TWinControl.WMPaletteChanged
 0001:0002EA5C       TWinControl.WMParentNotify
 0001:0002EB88       TWinControl.WMQueryNewPalette
 0001:0002DC58       TWinControl.WMSetCursor
 0001:0002DD58       TWinControl.WMSetFocus
 0001:0002DC10       TWinControl.WMSize
 0001:0002D994       TWinControl.WMSysColorChange
 0001:0002E994       TWinControl.WMSysCommand
 0001:0002E4F4       TWinControl.WMSysKeyDown
 0001:0002E5C4       TWinControl.WMSysKeyUp
 0001:0002D9D4       TWinControl.WMTimeChange
 0001:0002EA90       TWinControl.WMVKeyToItem
 0001:0002DA04       TWinControl.WMVScroll
 0001:0002DB00       TWinControl.WMWindowPosChanged
 0001:0002DBC0       TWinControl.WMWindowPosChanging
 0001:0002D9B0       TWinControl.WMWinIniChange
 0001:0002D158       TWinControl.WndProc
 0001:0002B7B4       TWinControlActionLink.AssignClient
 0001:0002B7D8       TWinControlActionLink.IsHelpContextLinked
 0001:0002B80C       TWinControlActionLink.SetHelpContext
 0001:00016594       TwoBitsFromDIB
 0001:00011CC4       TWriter.Write
 0001:00011D28       TWriter.WriteBoolean
 0001:00011D10       TWriter.WriteBuffer
 0001:00011D3C       TWriter.WriteInteger
 0001:00011DB0       TWriter.WriteListBegin
 0001:00011DB8       TWriter.WriteListEnd
 0001:00011DC0       TWriter.WriteString
 0001:00011E1C       TWriter.WriteValue
 0001:0000B8D8       TypInfo
 0002:000013F0       Unassigned
 0001:00000228       UnhandledExceptionFilter
 0001:000462D8       UnhookHintHooks
 0001:000057F8       UnhookWindowsHookEx
 0001:00000AFC       UninitAllocator
 0001:00037A28       UniqueCommand
 0001:00002D30       UniqueString
 0001:0004F260       Unit1
 0001:0004ECDC       Unit2
 0001:0004E00C       Unit3
 0001:0004DA38       Unit4
 0001:0004D424       Unit5
 0001:0004CEC0       Unit6
 0001:0004AAEC       UnitMil
 0001:0000583C       UnlockResource
 0001:00005358       UnrealizeObject
 0001:00005800       UnregisterClass
 0001:00004108       UnregisterModule
 0001:0000CF0C       UnRegisterModuleClasses
 0001:000025D0       UnsetExceptionHandler
 0001:00018CC0       UpdateDIBColorTable
 0001:0002B10C       UpdateFloatingDockSitePos
 0001:0003A6A8       UpdateItem
 0001:0003B078       UpdateItem
 0001:0003FD64       UpdateScrollProperties
 0001:00005808       UpdateWindow
 0001:00006944       UpperCase
 0001:00048A64       UrlMon
 0002:000016D8       User32Dll
 0002:0000093C       UtilWindowClass
 0001:0004842C       ValidateHintWindow
 0001:000272D4       ValidDockTarget
 0002:00000830       ValidMenuHotkeys
 0001:0003F380       ValidParentForm
 0002:00000304       ValTtoVarT
 0001:0000359C       VarCastError
 0001:00003710       VarChangeType
 0001:00000330       VariantChangeTypeEx
 0001:00000320       VariantClear
 0001:00000328       VariantCopyInd
 0001:000035A4       VarInvalidOp
 0001:000037B4       VarOleStrToString
 0001:000037E4       VarStringToOleStr
 0002:0000187C       VerifyFailtC
 0001:0000037C       VirtualAlloc
 0001:00005128       VirtualAlloc
 0001:00000384       VirtualFree
 0001:00005130       VirtualQuery
 0001:000002F8       VirtualQuery
 0001:00005138       WaitForSingleObject
 0001:00005810       WaitMessage
 0001:00003468       WideCharLenToStrVar
 0001:000002F0       WideCharToMultiByte
 0002:000000CC       Win32BuildNumber
 0001:00009FE8       Win32Check
 0002:000000D0       Win32CSDVersion
 0002:000000C4       Win32MajorVersion
 0002:000000C8       Win32MinorVersion
 0001:00033CFC       Win32NLSEnableIME
 0002:000000C0       Win32Platform
 0002:0000174C       WindowAtom
 0002:00000A28       WindowClass
 0001:00005820       WindowFromPoint
 0002:000007AC       WindowPos
 0001:00005A14       Windows
 0001:00016D20       WinError
 0001:00005818       WinHelp
 0001:00048A2C       WinInet
 0001:0001C374       WinSpool
 0002:00000A6C       WndProcPtrAtom
 0002:00000620       WordWraps
 0002:0000061C       WordWraps
 0001:00032D68       WriteControlName
 0001:00000230       WriteFile
 0001:00005140       WriteFile
 0001:00016D30       WriteIcon
 0002:00001874       WriteMilBusTimeOutC
 0001:00002EB0       WStrError
 0001:00002EB8       WStrSet
 0001:0001C0F0       xEnumDisplayMonitors
 0001:0001C018       xGetMonitorInfo
 0001:0001BE68       xGetMonitorInfoA
 0001:0001BF40       xGetMonitorInfoW
 0001:0001BDD0       xMonitorFromPoint
 0001:0001BCA8       xMonitorFromRect
 0001:0001BD38       xMonitorFromWindow
 0002:0000171C       _FlatSB_GetScrollProp
 0002:00001720       _FlatSB_SetScrollProp
 0001:0001BC20       _GetSystemMetrics
 0002:000017A4       _ImmGetCompositionString
 0002:00001788       _ImmGetContext
 0002:00001790       _ImmGetConversionStatus
 0002:000017A8       _ImmIsIME
 0002:000017AC       _ImmNotifyIME
 0002:0000178C       _ImmReleaseContext
 0002:000017A0       _ImmSetCompositionFont
 0002:0000179C       _ImmSetCompositionWindow
 0002:00001794       _ImmSetConversionStatus
 0002:00001798       _ImmSetOpenStatus
 0002:00001724       _InitializeFlatSB
 0002:00001728       _UninitializeFlatSB
 0002:00001784       _WINNLSEnableIME


  Address         Publics by Value

 0002:FFBAF010       TlsLast
 0001:000001D8       CloseHandle
 0001:000001E0       CreateFileA
 0001:000001E8       GetFileType
 0001:000001F0       GetFileSize
 0001:000001F8       GetStdHandle
 0001:00000200       RaiseException
 0001:00000208       ReadFile
 0001:00000210       RtlUnwind
 0001:00000218       SetEndOfFile
 0001:00000220       SetFilePointer
 0001:00000228       UnhandledExceptionFilter
 0001:00000230       WriteFile
 0001:00000238       CharNext
 0001:00000240       ExitProcess
 0001:00000248       MessageBox
 0001:00000250       FindClose
 0001:00000258       FindFirstFile
 0001:00000260       FreeLibrary
 0001:00000268       GetCommandLine
 0001:00000270       GetLastError
 0001:00000278       GetLocaleInfo
 0001:00000280       GetModuleFileName
 0001:00000288       GetModuleHandle
 0001:00000290       GetProcAddress
 0001:00000298       GetStartupInfo
 0001:000002A0       GetThreadLocale
 0001:000002A8       LoadLibraryEx
 0001:000002B0       LoadString
 0001:000002B8       lstrcpy
 0001:000002C0       lstrcpyn
 0001:000002C8       lstrlen
 0001:000002D0       MultiByteToWideChar
 0001:000002D8       RegCloseKey
 0001:000002E0       RegOpenKeyEx
 0001:000002E8       RegQueryValueEx
 0001:000002F0       WideCharToMultiByte
 0001:000002F8       VirtualQuery
 0001:00000300       SysAllocStringLen
 0001:00000308       SysReAllocStringLen
 0001:00000310       SysFreeString
 0001:00000318       SysStringLen
 0001:00000320       VariantClear
 0001:00000328       VariantCopyInd
 0001:00000330       VariantChangeTypeEx
 0001:00000338       InterlockedIncrement
 0001:00000340       InterlockedDecrement
 0001:00000348       GetCmdShow
 0001:0000036C       LocalAlloc
 0001:00000374       LocalFree
 0001:0000037C       VirtualAlloc
 0001:00000384       VirtualFree
 0001:0000038C       InitializeCriticalSection
 0001:00000394       EnterCriticalSection
 0001:0000039C       LeaveCriticalSection
 0001:000003A4       DeleteCriticalSection
 0001:000003AC       GetBlockDesc
 0001:000003FC       MakeEmpty
 0001:00000404       AddBlockAfter
 0001:00000434       DeleteBlock
 0001:0000044C       MergeBlockAfter
 0001:000004C0       RemoveBlock
 0001:00000550       GetSpace
 0001:000005B4       GetSpaceAt
 0001:0000062C       FreeSpace
 0001:000006E4       Commit
 0001:00000778       Decommit
 0001:000007F8       GetCommitted
 0001:00000888       GetCommittedAt
 0001:000009AC       FreeCommitted
 0001:00000A38       InitAllocator
 0001:00000AFC       UninitAllocator
 0001:00000BDC       DeleteFree
 0001:00000C40       FindCommitted
 0001:00000C70       FillBeforeGap
 0001:00000CA0       InternalFreeMem
 0001:00000CC4       FillAfterGap
 0001:00000CEC       FillerSizeBeforeGap
 0001:00000D5C       FillerSizeAfterGap
 0001:00000D94       DecommitFree
 0001:00000E2C       InsertFree
 0001:00000EB4       FreeCurAlloc
 0001:00000F00       MergeCommit
 0001:00000F8C       NewCommit
 0001:00000FB8       NewCommitAt
 0001:00000FEC       SearchSmallBlocks
 0001:00001018       TryHarder
 0001:0000110C       SysGetMem
 0001:00001294       SysFreeMem
 0001:00001438       ResizeInPlace
 0001:00001608       SysReallocMem
 0001:000016CC       @GetMem
 0001:000016E4       @FreeMem
 0001:000016FC       @ReallocMem
 0001:0000174C       RaiseList
 0001:00001758       Error
 0001:0000179C       @_IOTest
 0001:000017BC       SetInOutRes
 0001:000017CC       IOResult
 0001:000017E4       Move
 0001:00001824       @ROUND
 0001:00001830       @AbstractError
 0001:0000184C       @PStrNCpy
 0001:0000187C       @PStrCmp
 0001:00001900       @AStrCmp
 0001:00001970       @FillChar
 0001:00001990       @ValLong
 0001:00001A5C       @_CToPasStr
 0001:00001A74       @_CLenToPasStr
 0001:00001A98       GetKeyboardType
 0001:00001AA0       @isNECWindows
 0001:00001AD0       @FpuMaskInit
 0001:00001B94       @FpuInit
 0001:00001BA0       TObject.ClassType
 0001:00001BA4       TObject.ClassName
 0001:00001BB8       TObject.ClassNameIs
 0001:00001BE0       TObject.ClassParent
 0001:00001BEC       TObject.NewInstance
 0001:00001C00       TObject.FreeInstance
 0001:00001C28       TObject.Create
 0001:00001C48       TObject.Destroy
 0001:00001C58       TObject.Free
 0001:00001C64       TObject.InitInstance
 0001:00001CBC       InvokeImplGetter
 0001:00001CEC       TObject.GetInterface
 0001:00001D8C       TObject.GetInterfaceEntry
 0001:00001DD0       @IsClass
 0001:00001DE8       @AsClass
 0001:00001E04       GetDynaMethod
 0001:00001E34       @CallDynaInst
 0001:00001E4C       @FindDynaInst
 0001:00001E64       TObject.InheritsFrom
 0001:00001E78       TObject.ClassInfo
 0001:00001E7C       TObject.SafeCallException
 0001:00001E84       TObject.DefaultHandler
 0001:00001E88       TObject.AfterConstruction
 0001:00001E8C       TObject.BeforeDestruction
 0001:00001E90       TObject.Dispatch
 0001:00001EB8       TObject.MethodAddress
 0001:00001F08       TObject.FieldAddress
 0001:00001F58       @ClassCreate
 0001:00001FA8       @ClassDestroy
 0001:00001FB0       @AfterConstruction
 0001:00001FB8       @BeforeDestruction
 0001:00001FC8       NotifyReRaise
 0001:00001FE4       NotifyNonDelphiException
 0001:00002004       NotifyExcept
 0001:00002018       NotifyOnExcept
 0001:0000202C       NotifyAnyExcept
 0001:00002040       CheckJmp
 0001:00002060       NotifyExceptFinally
 0001:00002088       NotifyTerminate
 0001:000020A4       NotifyUnhandled
 0001:000020C4       @HandleAnyException
 0001:000021F0       @HandleOnException
 0001:00002378       @HandleFinally
 0001:000023B0       @RaiseExcept
 0001:000023CC       @RaiseAgain
 0001:00002420       @DoneExcept
 0001:00002450       @TryFinallyExit
 0001:00002468       RunErrorAt
 0001:00002474       MapToRunError
 0001:00002514       @ExceptionHandler
 0001:000025B0       SetExceptionHandler
 0001:000025D0       UnsetExceptionHandler
 0001:000025F8       FInitUnits
 0001:00002658       InitUnits
 0001:000026B8       @StartExe
 0001:000026E8       @InitResStringImports
 0001:00002704       @InitImports
 0001:00002724       MakeErrorMessage
 0001:00002774       ExitDll
 0001:000027A8       @Halt0
 0001:000028C8       @Halt
 0001:000028D4       @RunError
 0001:000028E0       @LStrClr
 0001:00002904       @LStrArrayClr
 0001:00002934       @LStrAsg
 0001:00002978       @LStrLAsg
 0001:000029A4       @NewAnsiString
 0001:000029C8       @LStrFromPCharLen
 0001:000029F8       @LStrFromPWCharLen
 0001:00002A88       @LStrFromChar
 0001:00002A98       @LStrFromPChar
 0001:00002AC8       @LStrFromPWChar
 0001:00002B04       @LStrFromString
 0001:00002B10       @LStrFromArray
 0001:00002B28       @LStrFromWStr
 0001:00002B3C       @LStrToString
 0001:00002B60       @LStrLen
 0001:00002B68       @LStrCat
 0001:00002BAC       @LStrCat3
 0001:00002C20       @LStrCatN
 0001:00002C70       @LStrCmp
 0001:00002D14       @LStrAddRef
 0001:00002D24       @LStrToPChar
 0001:00002D30       UniqueString
 0001:00002D68       @LStrCopy
 0001:00002DA8       @LStrDelete
 0001:00002DF0       @LStrInsert
 0001:00002E4C       @LStrSetLength
 0001:00002EB0       WStrError
 0001:00002EB8       WStrSet
 0001:00002EC8       @WStrClr
 0001:00002EE0       @WStrArrayClr
 0001:00002F04       @WStrAsg
 0001:00002F28       @WStrFromPCharLen
 0001:00002FAC       @WStrFromPWCharLen
 0001:00002FD0       @WStrFromLStr
 0001:00002FE0       @WStrLen
 0001:00002FEC       @NewWideString
 0001:00003004       @WStrSetLength
 0001:00003048       @InitializeRecord
 0001:00003074       @InitializeArray
 0001:00003108       @Initialize
 0001:00003114       @FinalizeRecord
 0001:00003140       @FinalizeArray
 0001:00003228       @Finalize
 0001:00003234       @CopyRecord
 0001:00003350       @CopyArray
 0001:00003444       @New
 0001:00003458       @Dispose
 0001:00003468       WideCharLenToStrVar
 0001:000034F4       OleStrToStrVar
 0001:00003518       StringToOleStr
 0001:0000359C       VarCastError
 0001:000035A4       VarInvalidOp
 0001:000035AC       @VarClear
 0001:000035F0       @VarCopy
 0001:0000368C       AnyChangeType
 0001:000036F8       ChangeSourceAny
 0001:00003710       VarChangeType
 0001:000037B4       VarOleStrToString
 0001:000037E4       VarStringToOleStr
 0001:00003804       @VarCast
 0001:000038F8       @VarToLStr
 0001:00003934       @VarFromLStr
 0001:00003974       @VarFromWStr
 0001:000039A8       @VarClr
 0001:000039B0       @VarAddRef
 0001:000039D4       @DynArrayLength
 0001:000039DC       @DynArrayHigh
 0001:000039E4       CopyArray
 0001:000039F4       FinalizeArray
 0001:000039FC       DynArrayClear
 0001:00003A04       DynArraySetLength
 0001:00003B90       @DynArraySetLength
 0001:00003B9C       @DynArrayClear
 0001:00003BD8       @DynArrayAsg
 0001:00003C00       FindHInstance
 0001:00003C28       FindClassHInstance
 0001:00003C30       FindResourceHInstance
 0001:00003C54       FindBS
 0001:00003C68       ToLongPath
 0001:00003E10       LoadResourceModule
 0001:0000400C       AddModuleUnloadProc
 0001:00004014       RemoveModuleUnloadProc
 0001:0000401C       AddModuleUnloadProc
 0001:0000403C       RemoveModuleUnloadProc
 0001:0000409C       NotifyModuleUnload
 0001:000040F8       RegisterModule
 0001:00004108       UnregisterModule
 0001:00004178       LoadResString
 0001:000041D0       @IntfClear
 0001:000041E8       @IntfCopy
 0001:00004204       @IntfAddRef
 0001:00004210       TInterfacedObject.AfterConstruction
 0001:0000421C       TInterfacedObject.BeforeDestruction
 0001:0000422C       TInterfacedObject.NewInstance
 0001:0000423C       TInterfacedObject.QueryInterface
 0001:00004264       TInterfacedObject._AddRef
 0001:00004278       TInterfacedObject._Release
 0001:000042A0       GetCurrentThreadId
 0001:000042A8       .
 0001:000044AA       @Assign
 0001:00004500       @_Flush
 0001:00004525       @Flush
 0001:0000454C       @Close
 0001:00004588       .
 0001:000045C3       @ResetText
 0001:000045CA       @RewritText
 0001:000045D1       @Append
 0001:000045D8       @WriteBytes
 0001:00004643       @WriteSpaces
 0001:0000467C       @Write0String
 0001:00004686       @WriteString
 0001:000046A3       @WriteLn
 0001:000046B7       @Write0Char
 0001:00004709       @WriteChar
 0001:00004720       @Write0CString
 0001:00004724       @WriteCString
 0001:00004750       @Pow10
 0001:00004750       FPower10
 0001:00004A24       @_llmul
 0001:00004A47       @_llmulo
 0001:00004A6A       @_lldiv
 0001:00004AE2       @_lldivo
 0001:00004B14       @_lludiv
 0001:00004B5D       @_llmod
 0001:00004BD7       @_llmodo
 0001:00004C09       @_llumod
 0001:00004C57       @_llshl
 0001:00004C8F       @_llushr
 0001:00004CAC       Finalization
 0001:00004D14       System
 0001:00004E0C       GetModuleFileName
 0001:00004E14       GetModuleHandle
 0001:00004E1C       LocalAlloc
 0001:00004E24       TlsGetValue
 0001:00004E2C       TlsSetValue
 0001:00004E34       InitThreadTLS
 0001:00004E84       @GetTls
 0001:00004EC8       InitializeModule
 0001:00004F14       @InitExe
 0001:00004F48       Finalization
 0001:00004F78       SysInit
 0001:00004F80       RegCloseKey
 0001:00004F88       RegOpenKeyEx
 0001:00004F90       RegQueryValueEx
 0001:00004F98       CloseHandle
 0001:00004FA0       CompareString
 0001:00004FA8       CreateEvent
 0001:00004FB0       CreateFile
 0001:00004FB8       CreateThread
 0001:00004FC0       DeleteCriticalSection
 0001:00004FC8       EnterCriticalSection
 0001:00004FD0       EnumCalendarInfoA
 0001:00004FD8       FindResource
 0001:00004FE0       FormatMessage
 0001:00004FE8       FreeLibrary
 0001:00004FF0       FreeResource
 0001:00004FF8       GetCPInfo
 0001:00005000       GetCurrentProcessId
 0001:00005008       GetCurrentThreadId
 0001:00005010       GetDateFormat
 0001:00005018       GetDiskFreeSpaceA
 0001:00005020       GetLastError
 0001:00005028       GetLocalTime
 0001:00005030       GetLocaleInfo
 0001:00005038       GetModuleFileName
 0001:00005040       GetModuleHandle
 0001:00005048       GetProcAddress
 0001:00005050       GetSystemInfo
 0001:00005058       GetThreadLocale
 0001:00005060       GetTickCount
 0001:00005068       GetVersion
 0001:00005070       GetVersionEx
 0001:00005078       GlobalAddAtom
 0001:00005080       GlobalAlloc
 0001:00005088       GlobalDeleteAtom
 0001:00005090       GlobalFree
 0001:00005098       GlobalLock
 0001:000050A0       GlobalHandle
 0001:000050A8       GlobalReAlloc
 0001:000050B0       GlobalUnlock
 0001:000050B8       InitializeCriticalSection
 0001:000050C0       LeaveCriticalSection
 0001:000050C8       LoadLibrary
 0001:000050D0       LoadResource
 0001:000050D8       LockResource
 0001:000050E0       MulDiv
 0001:000050E8       ReadFile
 0001:000050F0       SetEndOfFile
 0001:000050F8       SetErrorMode
 0001:00005100       SetEvent
 0001:00005108       SetFilePointer
 0001:00005110       SetThreadLocale
 0001:00005118       SizeofResource
 0001:00005120       Sleep
 0001:00005128       VirtualAlloc
 0001:00005130       VirtualQuery
 0001:00005138       WaitForSingleObject
 0001:00005140       WriteFile
 0001:00005148       lstrcpy
 0001:00005150       BitBlt
 0001:00005158       CopyEnhMetaFile
 0001:00005160       CreateBitmap
 0001:00005168       CreateBrushIndirect
 0001:00005170       CreateCompatibleBitmap
 0001:00005178       CreateCompatibleDC
 0001:00005180       CreateDIBSection
 0001:00005188       CreateDIBitmap
 0001:00005190       CreateFontIndirect
 0001:00005198       CreateHalftonePalette
 0001:000051A0       CreatePalette
 0001:000051A8       CreatePenIndirect
 0001:000051B0       CreateSolidBrush
 0001:000051B8       DeleteDC
 0001:000051C0       DeleteEnhMetaFile
 0001:000051C8       DeleteObject
 0001:000051D0       ExcludeClipRect
 0001:000051D8       ExtTextOut
 0001:000051E0       GetBitmapBits
 0001:000051E8       GetBrushOrgEx
 0001:000051F0       GetClipBox
 0001:000051F8       GetCurrentPositionEx
 0001:00005200       GetDCOrgEx
 0001:00005208       GetDIBColorTable
 0001:00005210       GetDIBits
 0001:00005218       GetDeviceCaps
 0001:00005220       GetEnhMetaFileBits
 0001:00005228       GetEnhMetaFileHeader
 0001:00005230       GetEnhMetaFilePaletteEntries
 0001:00005238       GetObject
 0001:00005240       GetPaletteEntries
 0001:00005248       GetPixel
 0001:00005250       GetStockObject
 0001:00005258       GetSystemPaletteEntries
 0001:00005260       GetTextExtentPoint32
 0001:00005268       GetTextMetrics
 0001:00005270       GetWinMetaFileBits
 0001:00005278       GetWindowOrgEx
 0001:00005280       IntersectClipRect
 0001:00005288       LineTo
 0001:00005290       MaskBlt
 0001:00005298       MoveToEx
 0001:000052A0       PatBlt
 0001:000052A8       PlayEnhMetaFile
 0001:000052B0       Polyline
 0001:000052B8       RealizePalette
 0001:000052C0       RectVisible
 0001:000052C8       Rectangle
 0001:000052D0       RestoreDC
 0001:000052D8       SaveDC
 0001:000052E0       SelectObject
 0001:000052E8       SelectPalette
 0001:000052F0       SetBkColor
 0001:000052F8       SetBkMode
 0001:00005300       SetBrushOrgEx
 0001:00005308       SetDIBColorTable
 0001:00005310       SetEnhMetaFileBits
 0001:00005318       SetPixel
 0001:00005320       SetROP2
 0001:00005328       SetStretchBltMode
 0001:00005330       SetTextColor
 0001:00005338       SetViewportOrgEx
 0001:00005340       SetWinMetaFileBits
 0001:00005348       SetWindowOrgEx
 0001:00005350       StretchBlt
 0001:00005358       UnrealizeObject
 0001:00005360       ActivateKeyboardLayout
 0001:00005368       AdjustWindowRectEx
 0001:00005370       AnsiLower
 0001:00005378       BeginPaint
 0001:00005380       CallNextHookEx
 0001:00005388       CallWindowProc
 0001:00005390       CharLowerBuff
 0001:00005398       CheckMenuItem
 0001:000053A0       ClientToScreen
 0001:000053A8       CreateIcon
 0001:000053B0       CreateMenu
 0001:000053B8       CreatePopupMenu
 0001:000053C0       CreateWindowEx
 0001:000053C8       DefFrameProc
 0001:000053D0       DefMDIChildProc
 0001:000053D8       DefWindowProc
 0001:000053E0       DeleteMenu
 0001:000053E8       DestroyCursor
 0001:000053F0       DestroyIcon
 0001:000053F8       DestroyMenu
 0001:00005400       DestroyWindow
 0001:00005408       DispatchMessage
 0001:00005410       DrawEdge
 0001:00005418       DrawFocusRect
 0001:00005420       DrawFrameControl
 0001:00005428       DrawIcon
 0001:00005430       DrawIconEx
 0001:00005438       DrawMenuBar
 0001:00005440       DrawText
 0001:00005448       EnableMenuItem
 0001:00005450       EnableScrollBar
 0001:00005458       EnableWindow
 0001:00005460       EndPaint
 0001:00005468       EnumThreadWindows
 0001:00005470       EnumWindows
 0001:00005478       EqualRect
 0001:00005480       FillRect
 0001:00005488       FindWindow
 0001:00005490       FrameRect
 0001:00005498       GetActiveWindow
 0001:000054A0       GetCapture
 0001:000054A8       GetClassInfo
 0001:000054B0       GetClientRect
 0001:000054B8       GetClipboardData
 0001:000054C0       GetCursor
 0001:000054C8       GetCursorPos
 0001:000054D0       GetDC
 0001:000054D8       GetDCEx
 0001:000054E0       GetDesktopWindow
 0001:000054E8       GetFocus
 0001:000054F0       GetForegroundWindow
 0001:000054F8       GetIconInfo
 0001:00005500       GetKeyNameText
 0001:00005508       GetKeyState
 0001:00005510       GetKeyboardLayout
 0001:00005518       GetKeyboardLayoutList
 0001:00005520       GetKeyboardState
 0001:00005528       GetLastActivePopup
 0001:00005530       GetMenu
 0001:00005538       GetMenuItemCount
 0001:00005540       GetMenuItemID
 0001:00005548       GetMenuItemInfo
 0001:00005550       GetMenuState
 0001:00005558       GetMenuString
 0001:00005560       GetNextWindow
 0001:00005568       GetParent
 0001:00005570       GetProp
 0001:00005578       GetScrollInfo
 0001:00005580       GetScrollPos
 0001:00005588       GetScrollRange
 0001:00005590       GetSubMenu
 0001:00005598       GetSysColor
 0001:000055A0       GetSystemMenu
 0001:000055A8       GetSystemMetrics
 0001:000055B0       GetTopWindow
 0001:000055B8       GetWindow
 0001:000055C0       GetWindowDC
 0001:000055C8       GetWindowLong
 0001:000055D0       GetWindowPlacement
 0001:000055D8       GetWindowRect
 0001:000055E0       GetWindowText
 0001:000055E8       GetWindowThreadProcessId
 0001:000055F0       InflateRect
 0001:000055F8       InsertMenu
 0001:00005600       InsertMenuItem
 0001:00005608       IntersectRect
 0001:00005610       InvalidateRect
 0001:00005618       IsChild
 0001:00005620       IsDialogMessage
 0001:00005628       IsIconic
 0001:00005630       IsRectEmpty
 0001:00005638       IsWindow
 0001:00005640       IsWindowEnabled
 0001:00005648       IsWindowVisible
 0001:00005650       IsZoomed
 0001:00005658       KillTimer
 0001:00005660       LoadBitmap
 0001:00005668       LoadCursor
 0001:00005670       LoadIcon
 0001:00005678       LoadKeyboardLayout
 0001:00005680       LoadString
 0001:00005688       MapVirtualKey
 0001:00005690       MapWindowPoints
 0001:00005698       MessageBox
 0001:000056A0       OemToAnsi
 0001:000056A8       OffsetRect
 0001:000056B0       PeekMessage
 0001:000056B8       PostMessage
 0001:000056C0       PostQuitMessage
 0001:000056C8       PtInRect
 0001:000056D0       RegisterClass
 0001:000056D8       RegisterClipboardFormat
 0001:000056E0       RegisterWindowMessage
 0001:000056E8       ReleaseCapture
 0001:000056F0       ReleaseDC
 0001:000056F8       RemoveMenu
 0001:00005700       RemoveProp
 0001:00005708       ScreenToClient
 0001:00005710       ScrollWindow
 0001:00005718       SendMessage
 0001:00005720       SetActiveWindow
 0001:00005728       SetCapture
 0001:00005730       SetClassLong
 0001:00005738       SetCursor
 0001:00005740       SetFocus
 0001:00005748       SetForegroundWindow
 0001:00005750       SetMenu
 0001:00005758       SetMenuItemInfo
 0001:00005760       SetProp
 0001:00005768       SetRect
 0001:00005770       SetScrollInfo
 0001:00005778       SetScrollPos
 0001:00005780       SetScrollRange
 0001:00005788       SetTimer
 0001:00005790       SetWindowLong
 0001:00005798       SetWindowPlacement
 0001:000057A0       SetWindowPos
 0001:000057A8       SetWindowText
 0001:000057B0       SetWindowsHookEx
 0001:000057B8       ShowCursor
 0001:000057C0       ShowOwnedPopups
 0001:000057C8       ShowScrollBar
 0001:000057D0       ShowWindow
 0001:000057D8       SystemParametersInfo
 0001:000057E0       TrackPopupMenu
 0001:000057E8       TranslateMDISysAccel
 0001:000057F0       TranslateMessage
 0001:000057F8       UnhookWindowsHookEx
 0001:00005800       UnregisterClass
 0001:00005808       UpdateWindow
 0001:00005810       WaitMessage
 0001:00005818       WinHelp
 0001:00005820       WindowFromPoint
 0001:00005828       MakeLong
 0001:00005834       GetCurrentTime
 0001:0000583C       UnlockResource
 0001:00005840       GlobalAllocPtr
 0001:00005850       GlobalReAllocPtr
 0001:0000586C       GlobalFreePtr
 0001:00005880       MakeROP4
 0001:0000588C       SmallPointToPoint
 0001:000058A0       PointToSmallPoint
 0001:000058B8       CreateWindow
 0001:000058EC       HwndMSWheel
 0001:000059E4       Finalization
 0001:00005A14       Windows
 0001:00005A1C       Finalization
 0001:00005A4C       Messages
 0001:00005CF4       Finalization
 0001:00005D24       SysConst
 0001:0000682C       DivMod
 0001:00006848       ConvertError
 0001:00006860       ConvertErrorFmt
 0001:000068C0       AllocMem
 0001:000068E0       DoExitProc
 0001:0000690C       AddExitProc
 0001:00006944       UpperCase
 0001:00006980       CompareMem
 0001:000069A0       CompareText
 0001:000069F4       SameText
 0001:00006A18       AnsiLowerCase
 0001:00006A4C       AnsiCompareText
 0001:00006A84       AnsiSameText
 0001:00006AC0       AnsiStrLIComp
 0001:00006AE0       IsValidIdent
 0001:00006B44       IntToStr
 0001:00006B74       IntToHex
 0001:00006BB0       StrToInt
 0001:00006BEC       StrToIntDef
 0001:00006C04       FileOpen
 0001:00006C44       FileCreate
 0001:00006C68       FileRead
 0001:00006C94       FileWrite
 0001:00006CC0       FileSeek
 0001:00006CCC       FileClose
 0001:00006CD4       AnsiLastChar
 0001:00006D04       LastDelimiter
 0001:00006D54       ExtractFileName
 0001:00006D8C       ExtractFileExt
 0001:00006DD4       BackfillGetDiskFreeSpaceEx
 0001:00006E48       StrLen
 0001:00006E60       StrEnd
 0001:00006E74       StrMove
 0001:00006EB0       StrCopy
 0001:00006ED8       StrLCopy
 0001:00006F0C       StrPCopy
 0001:00006F30       StrPLCopy
 0001:00006F50       StrComp
 0001:00006F74       StrLIComp
 0001:00006FBC       StrScan
 0001:00006FDC       StrPos
 0001:00007030       StrAlloc
 0001:00007044       StrBufSize
 0001:00007050       StrNew
 0001:0000707C       StrDispose
 0001:0000708C       FormatError
 0001:000070E4       FormatVarToStr
 0001:000070F8       FormatClearStr
 0001:00007104       FormatBuf
 0001:000074FC       StrFmt
 0001:00007530       StrLFmt
 0001:00007564       Format
 0001:00007578       FmtStr
 0001:00007640       DateTimeToTimeStamp
 0001:00007680       DoEncodeTime
 0001:000076F0       EncodeTime
 0001:00007768       DecodeTime
 0001:000077C4       IsLeapYear
 0001:00007800       DoEncodeDate
 0001:000078C8       EncodeDate
 0001:0000793C       InternalDecodeDate
 0001:00007A80       DecodeDate
 0001:00007AA0       DayOfWeek
 0001:00007AC8       Now
 0001:00007B18       AppendChars
 0001:00007B5C       AppendString
 0001:00007B7C       AppendNumber
 0001:00007BC8       GetCount
 0001:00007BF4       GetDate
 0001:00007C2C       GetTime
 0001:00007C6C       ConvertEraString
 0001:00007DD8       ConvertYearString
 0001:00007EE0       AppendFormat
 0001:00008654       DateTimeToString
 0001:000086B0       DateTimeToStr
 0001:000086C4       SysErrorMessage
 0001:00008710       GetLocaleStr
 0001:0000875C       GetLocaleChar
 0001:00008784       LocalGetLocaleStr
 0001:000087C0       GetMonthDayNames
 0001:000088E4       EnumEraNames
 0001:00008920       EnumEraYearOffsets
 0001:00008998       GetEraNamesAndYearOffsets
 0001:00008A48       TranslateDateFormat
 0001:00008C68       ExceptObject
 0001:00008C80       ExceptAddr
 0001:00008C98       ConvertAddr
 0001:00008CA4       ExceptionErrorMessage
 0001:00008E2C       ShowException
 0001:00008EA4       Exception.Create
 0001:00008EE0       Exception.CreateFmt
 0001:00008F60       Exception.CreateRes
 0001:00008F9C       Exception.CreateResFmt
 0001:00009030       EHeapException.FreeInstance
 0001:0000905C       CreateInOutError
 0001:000090DC       ErrorHandler
 0001:00009120       CreateAssertException
 0001:000091CC       RaiseAssertException
 0001:000091DC       AssertErrorHandler
 0001:000091F8       AbstractErrorHandler
 0001:00009224       MapException
 0001:000092A4       GetExceptionClass
 0001:000092B8       CreateAVObject
 0001:00009484       GetExceptionObject
 0001:00009550       ExceptHandler
 0001:00009560       InitExceptions
 0001:0000962C       DoneExceptions
 0001:00009698       InitPlatformId
 0001:000096F0       ByteTypeTest
 0001:00009768       ByteType
 0001:0000978C       StrByteType
 0001:000097A4       ByteToCharLen
 0001:000097CC       ByteToCharIndex
 0001:0000981C       CountChars
 0001:00009890       CharToByteIndex
 0001:000098F4       CharToByteLen
 0001:00009954       AnsiPos
 0001:0000998C       AnsiLowerCaseFileName
 0001:00009A18       AnsiStrPos
 0001:00009AB8       AnsiStrRScan
 0001:00009AE0       AnsiStrScan
 0001:00009B20       InitSysLocale
 0001:00009BD8       GetFormatSettings
 0001:00009F50       RaiseLastWin32Error
 0001:00009FE8       Win32Check
 0001:00009FF8       CallTerminateProcs
 0001:0000A014       FreeTerminateProcs
 0001:0000A034       InitDriveSpacePtr
 0001:0000A090       TMultiReadExclusiveWriteSynchronizer.Create
 0001:0000A0F8       TMultiReadExclusiveWriteSynchronizer.Destroy
 0001:0000A138       TMultiReadExclusiveWriteSynchronizer.WriterIsOnlyReader
 0001:0000A174       TMultiReadExclusiveWriteSynchronizer.BeginWrite
 0001:0000A1C0       TMultiReadExclusiveWriteSynchronizer.EndWrite
 0001:0000A1E4       FreeAndNil
 0001:0000A1F4       SafeLoadLibrary
 0001:0000A548       .
 0001:0000A56A       FloatToText
 0001:0000A83A       FloatToTextFmt
 0001:0000AB0D       FloatToDecimal
 0001:0000AD0C       TextToFloat
 0001:0000AE10       Finalization
 0001:0000AF50       SysUtils
 0001:0000AFD0       IsEqualIID
 0001:0000AFD8       Finalization
 0001:0000B008       ActiveX
 0001:0000B368       Finalization
 0001:0000B398       Consts
 0001:0000B3CC       GetTypeData
 0001:0000B3D8       GetEnumNameValue
 0001:0000B424       GetEnumValue
 0001:0000B438       GetPropInfo
 0001:0000B4A4       GetOrdProp
 0001:0000B518       SetOrdProp
 0001:0000B574       SetShortStrProp
 0001:0000B5C8       SetShortStrPropAsLongStr
 0001:0000B5FC       AssignLongStr
 0001:0000B610       SetLongStrProp
 0001:0000B650       AssignWideStr
 0001:0000B664       SetWideStrProp
 0001:0000B6A4       SetWideStrPropAsLongStr
 0001:0000B6FC       SetStrProp
 0001:0000B728       SetFloatProp
 0001:0000B7C0       AssignVariant
 0001:0000B7D4       SetVariantProp
 0001:0000B814       SetMethodProp
 0001:0000B84C       SetInt64Prop
 0001:0000B888       Finalization
 0001:0000B8D8       TypInfo
 0001:0000CB78       Point
 0001:0000CB80       SmallPoint
 0001:0000CB90       Rect
 0001:0000CBAC       Bounds
 0001:0000CBC8       GetFieldClassTable
 0001:0000CBD4       ClassNotFound
 0001:0000CC40       GetClass
 0001:0000CCF0       FindClass
 0001:0000CD10       GetFieldClass
 0001:0000CDDC       RegisterClass
 0001:0000CED8       RegisterClasses
 0001:0000CF0C       UnRegisterModuleClasses
 0001:0000D02C       TIntConst.Create
 0001:0000D064       RegisterIntegerConsts
 0001:0000D090       FindIdentToInt
 0001:0000D114       IdentToInt
 0001:0000D154       IntToIdent
 0001:0000D198       InternalReadComponentRes
 0001:0000D21C       BeginGlobalLoading
 0001:0000D27C       NotifyGlobalLoading
 0001:0000D2AC       EndGlobalLoading
 0001:0000D320       InitComponent
 0001:0000D3C8       InitInheritedComponent
 0001:0000D48C       TList.Destroy
 0001:0000D4AC       TList.Add
 0001:0000D4E0       TList.Clear
 0001:0000D4F8       TList.Delete
 0001:0000D558       ReturnAddr
 0001:0000D55C       TList.Error
 0001:0000D594       TList.Error
 0001:0000D5E8       TList.Expand
 0001:0000D600       TList.First
 0001:0000D608       TList.Get
 0001:0000D630       TList.Grow
 0001:0000D664       TList.IndexOf
 0001:0000D684       TList.Insert
 0001:0000D6F0       TList.Last
 0001:0000D6FC       TList.Put
 0001:0000D748       TList.Remove
 0001:0000D768       TList.SetCapacity
 0001:0000D7A4       TList.SetCount
 0001:0000D814       TList.Notify
 0001:0000D818       TThreadList.Create
 0001:0000D86C       TThreadList.Destroy
 0001:0000D8E8       TThreadList.Add
 0001:0000D970       TThreadList.LockList
 0001:0000D984       TThreadList.Remove
 0001:0000D9D4       TThreadList.UnlockList
 0001:0000D9E0       TBits.Destroy
 0001:0000DA10       TBits.Error
 0001:0000DA28       Min
 0001:0000DA34       TBits.SetSize
 0001:0000DAD8       TBits.SetBit
 0001:0000DB04       TBits.GetBit
 0001:0000DB1C       TBits.OpenBit
 0001:0000DB94       TPersistent.Destroy
 0001:0000DBC0       TPersistent.Assign
 0001:0000DBD4       TPersistent.AssignError
 0001:0000DCA4       TPersistent.AssignTo
 0001:0000DCAC       TPersistent.DefineProperties
 0001:0000DCB0       TPersistent.GetNamePath
 0001:0000DD60       TPersistent.GetOwner
 0001:0000DD64       TCollection.Add
 0001:0000DD70       TCollection.Clear
 0001:0000DDD8       TStrings.Destroy
 0001:0000DE08       TStrings.Add
 0001:0000DE2C       TStrings.AddObject
 0001:0000DE50       TStrings.AddStrings
 0001:0000DF08       TStrings.Assign
 0001:0000DF78       TStrings.BeginUpdate
 0001:0000DF90       DoWrite
 0001:0000DFE8       TStrings.DefineProperties
 0001:0000E034       TStrings.EndUpdate
 0001:0000E048       TStrings.Equals
 0001:0000E0F0       ReturnAddr
 0001:0000E0F4       TStrings.Error
 0001:0000E12C       TStrings.Error
 0001:0000E184       TStrings.Exchange
 0001:0000E26C       TStrings.GetCapacity
 0001:0000E274       TStrings.GetObject
 0001:0000E278       TStrings.GetText
 0001:0000E2CC       TStrings.GetTextStr
 0001:0000E3B4       TStrings.IndexOf
 0001:0000E434       TStrings.IndexOfObject
 0001:0000E468       TStrings.InsertObject
 0001:0000E498       TStrings.LoadFromFile
 0001:0000E4EC       TStrings.LoadFromStream
 0001:0000E598       TStrings.Move
 0001:0000E648       TStrings.Put
 0001:0000E678       TStrings.PutObject
 0001:0000E67C       TStrings.ReadData
 0001:0000E72C       TStrings.SaveToFile
 0001:0000E784       TStrings.SaveToStream
 0001:0000E7E0       TStrings.SetCapacity
 0001:0000E7E4       TStrings.SetStringsAdapter
 0001:0000E818       TStrings.SetText
 0001:0000E868       TStrings.SetTextStr
 0001:0000E928       TStrings.SetUpdateState
 0001:0000E92C       TStrings.WriteData
 0001:0000E9B0       TStringList.Destroy
 0001:0000EA0C       TStringList.Add
 0001:0000EA64       TStringList.Changed
 0001:0000EA80       TStringList.Changing
 0001:0000EA9C       TStringList.Clear
 0001:0000EAD4       TStringList.Delete
 0001:0000EB38       TStringList.Exchange
 0001:0000EB90       TStringList.ExchangeItems
 0001:0000EBB4       TStringList.Find
 0001:0000EC1C       TStringList.Get
 0001:0000EC50       TStringList.GetCapacity
 0001:0000EC54       TStringList.GetCount
 0001:0000EC58       TStringList.GetObject
 0001:0000EC80       TStringList.Grow
 0001:0000ECB4       TStringList.IndexOf
 0001:0000ECEC       TStringList.Insert
 0001:0000ED34       TStringList.InsertItem
 0001:0000ED9C       TStringList.Put
 0001:0000EDF4       TStringList.PutObject
 0001:0000EE30       TStringList.QuickSort
 0001:0000EEC4       TStringList.SetCapacity
 0001:0000EEE0       TStringList.SetSorted
 0001:0000EEFC       TStringList.SetUpdateState
 0001:0000EF0C       StringListAnsiCompare
 0001:0000EF24       TStringList.Sort
 0001:0000EF34       TStringList.CustomSort
 0001:0000EF68       TStream.GetPosition
 0001:0000EF78       TStream.SetPosition
 0001:0000EF84       TStream.GetSize
 0001:0000EFB8       TStream.SetSize
 0001:0000EFBC       TStream.ReadBuffer
 0001:0000EFF4       TStream.WriteBuffer
 0001:0000F02C       TStream.CopyFrom
 0001:0000F0E0       TStream.ReadComponent
 0001:0000F140       THandleStream.Read
 0001:0000F150       THandleStream.Write
 0001:0000F160       THandleStream.Seek
 0001:0000F16C       THandleStream.SetSize
 0001:0000F18C       TFileStream.Create
 0001:0000F244       TFileStream.Destroy
 0001:0000F26C       TCustomMemoryStream.SetPointer
 0001:0000F274       TCustomMemoryStream.Read
 0001:0000F2AC       TCustomMemoryStream.Seek
 0001:0000F2D0       TMemoryStream.Destroy
 0001:0000F2FC       TMemoryStream.Clear
 0001:0000F314       TMemoryStream.SetCapacity
 0001:0000F33C       TMemoryStream.SetSize
 0001:0000F368       TMemoryStream.Realloc
 0001:0000F3EC       TMemoryStream.Write
 0001:0000F43C       TResourceStream.Create
 0001:0000F494       Error
 0001:0000F504       TResourceStream.Initialize
 0001:0000F570       TResourceStream.Destroy
 0001:0000F5A8       TResourceStream.Write
 0001:0000F5C0       TFiler.Create
 0001:0000F608       TFiler.Destroy
 0001:0000F630       TFiler.SetRoot
 0001:0000F6A8       TPropFixup.Create
 0001:0000F700       TPropFixup.MakeGlobalReference
 0001:0000F748       FindNestedComponent
 0001:0000F810       AddFinished
 0001:0000F848       AddNotFinished
 0001:0000F890       GlobalFixupReferences
 0001:0000FA4C       RemoveFixupReferences
 0001:0000FAF8       RemoveFixups
 0001:0000FB7C       ReadError
 0001:0000FB94       PropValueError
 0001:0000FBA0       PropertyNotFound
 0001:0000FBAC       EnumValue
 0001:0000FBC4       TReader.Destroy
 0001:0000FC00       TReader.CheckValue
 0001:0000FC24       TReader.DefineProperty
 0001:0000FC58       TReader.DefineBinaryProperty
 0001:0000FD34       TReader.EndOfList
 0001:0000FD48       TReader.Error
 0001:0000FD68       TReader.FindMethod
 0001:0000FDD0       RemoveGlobalFixup
 0001:0000FE4C       TReader.DoFixupReferences
 0001:0000FF70       TReader.FlushBuffer
 0001:0000FF90       TReader.FreeFixups
 0001:0000FFCC       TReader.GetPosition
 0001:0000FFE4       TReader.NextValue
 0001:0000FFF4       TReader.PropertyError
 0001:00010000       TReader.Read
 0001:0001004C       TReader.ReadBuffer
 0001:00010088       TReader.ReadBoolean
 0001:0001009C       TReader.ReadChar
 0001:00010120       TReader.ReadCollection
 0001:000101CC       ComponentCreated
 0001:000101EC       Recover
 0001:0001024C       CreateComponent
 0001:0001035C       SetCompName
 0001:000103FC       FindExistingComponent
 0001:000104A0       TReader.ReadComponent
 0001:00010678       TReader.ReadData
 0001:000106E8       TReader.ReadDataInner
 0001:000107B8       TReader.ReadFloat
 0001:000107F8       TReader.ReadSingle
 0001:00010838       TReader.ReadCurrency
 0001:00010884       TReader.ReadDate
 0001:000108C4       TReader.ReadIdent
 0001:000109C4       TReader.ReadInteger
 0001:00010A30       TReader.ReadInt64
 0001:00010A74       TReader.ReadListBegin
 0001:00010A7C       TReader.ReadListEnd
 0001:00010A84       TReader.ReadPrefix
 0001:00010AC4       HandleException
 0001:00010BC4       PropPathError
 0001:00010BE0       TReader.ReadProperty
 0001:00010DB4       SetIntIdent
 0001:00010DFC       SetObjectIdent
 0001:00010E3C       ReadVariantProp
 0001:00011034       TReader.ReadPropValue
 0001:000112CC       FindUniqueName
 0001:0001133C       TReader.ReadRootComponent
 0001:000115E0       TReader.ReadSet
 0001:0001169C       TReader.ReadSignature
 0001:000116C0       TReader.ReadStr
 0001:000116FC       TReader.ReadString
 0001:0001175C       TReader.ReadWideString
 0001:000117A4       TReader.ReadValue
 0001:000117B8       TReader.SkipSetBody
 0001:00011800       SkipList
 0001:00011828       SkipBytes
 0001:0001187C       SkipBinary
 0001:000118A4       SkipCollection
 0001:00011904       TReader.SkipValue
 0001:00011A6C       TReader.SkipProperty
 0001:00011AB4       TReader.SkipComponent
 0001:00011B5C       TReader.FindAncestorComponent
 0001:00011C14       TReader.ReferenceName
 0001:00011C2C       TReader.SetName
 0001:00011C54       TReader.FindComponentClass
 0001:00011CC4       TWriter.Write
 0001:00011D10       TWriter.WriteBuffer
 0001:00011D28       TWriter.WriteBoolean
 0001:00011D3C       TWriter.WriteInteger
 0001:00011DB0       TWriter.WriteListBegin
 0001:00011DB8       TWriter.WriteListEnd
 0001:00011DC0       TWriter.WriteString
 0001:00011E1C       TWriter.WriteValue
 0001:00011E30       FreeThreadWindow
 0001:00011E4C       TComponent.Create
 0001:00011E98       TComponent.Destroy
 0001:00011F20       TComponent.BeforeDestruction
 0001:00011F2C       TComponent.FreeNotification
 0001:00011F80       TComponent.ReadLeft
 0001:00011F94       TComponent.ReadTop
 0001:00011FA8       TComponent.WriteLeft
 0001:00011FB4       TComponent.WriteTop
 0001:00011FC0       TComponent.Insert
 0001:00011FEC       TComponent.Remove
 0001:00012014       TComponent.InsertComponent
 0001:0001206C       TComponent.RemoveComponent
 0001:000120A4       TComponent.DestroyComponents
 0001:000120FC       TComponent.Destroying
 0001:00012138       TComponent.RemoveNotification
 0001:0001215C       TComponent.RemoveFreeNotification
 0001:00012178       TComponent.Notification
 0001:000121D4       TComponent.DefineProperties
 0001:0001225C       TComponent.HasParent
 0001:00012260       TComponent.GetChildren
 0001:00012268       TComponent.GetChildOwner
 0001:0001226C       TComponent.GetChildParent
 0001:00012270       TComponent.GetNamePath
 0001:00012284       TComponent.GetOwner
 0001:00012288       TComponent.SetChildOrder
 0001:0001228C       TComponent.GetParentComponent
 0001:00012290       TComponent.SetParentComponent
 0001:00012294       TComponent.Updating
 0001:000122A0       TComponent.Updated
 0001:000122AC       TComponent.Loaded
 0001:000122B8       TComponent.ReadState
 0001:000122C0       TComponent.WriteState
 0001:000122C8       TComponent.ValidateRename
 0001:00012348       TComponent.ValidateContainer
 0001:0001235C       TComponent.ValidateInsert
 0001:00012360       TComponent.FindComponent
 0001:000123B0       TComponent.SetName
 0001:0001243C       TComponent.ChangeName
 0001:00012450       TComponent.GetComponent
 0001:0001247C       TComponent.GetComponentCount
 0001:0001248C       TComponent.SetComponentIndex
 0001:000124E0       TComponent.SetDesigning
 0001:00012530       TComponent.SetReference
 0001:00012578       TComponent.ExecuteAction
 0001:000125A0       TComponent.UpdateAction
 0001:000125C8       TComponent.SafeCallException
 0001:000125E0       TComponent.UpdateRegistry
 0001:000125E8       TComponent.QueryInterface
 0001:00012628       TBasicActionLink.Create
 0001:0001266C       TBasicActionLink.AssignClient
 0001:00012670       TBasicActionLink.Destroy
 0001:000126A4       TBasicActionLink.Change
 0001:000126BC       TBasicActionLink.Execute
 0001:000126CC       TBasicActionLink.SetAction
 0001:000126F8       TBasicActionLink.IsOnExecuteLinked
 0001:000126FC       TBasicActionLink.SetOnExecute
 0001:00012704       TBasicActionLink.Update
 0001:00012710       TBasicAction.Create
 0001:00012754       TBasicAction.Destroy
 0001:000127A0       TBasicAction.HandlesTarget
 0001:000127A4       TBasicAction.ExecuteTarget
 0001:000127A8       TBasicAction.UpdateTarget
 0001:000127AC       TBasicAction.Execute
 0001:000127C8       TBasicAction.Update
 0001:000127E4       TBasicAction.SetOnExecute
 0001:00012838       TBasicAction.Change
 0001:0001284C       TBasicAction.RegisterChanges
 0001:00012858       TBasicAction.UnRegisterChanges
 0001:00012898       TStreamAdapter.Create
 0001:000128E0       TStreamAdapter.Destroy
 0001:00012918       TStreamAdapter.Read
 0001:00012980       TStreamAdapter.Write
 0001:000129E8       TStreamAdapter.Seek
 0001:00012A60       TStreamAdapter.SetSize
 0001:00012AC4       TStreamAdapter.CopyTo
 0001:00012CAC       TStreamAdapter.Commit
 0001:00012CB8       TStreamAdapter.Revert
 0001:00012CC4       TStreamAdapter.LockRegion
 0001:00012CD0       TStreamAdapter.UnlockRegion
 0001:00012CDC       TStreamAdapter.Stat
 0001:00012D5C       TStreamAdapter.Clone
 0001:00012D74       FreeIntConstList
 0001:00012DE0       ModuleUnload
 0001:00012DE8       Finalization
 0001:00012EA0       Classes
 0001:00013D78       InternalDeletePalette
 0001:00013DEC       GetHashCode
 0001:00013E00       TResourceManager.Create
 0001:00013E3C       TResourceManager.Destroy
 0001:00013E60       TResourceManager.Lock
 0001:00013E6C       TResourceManager.Unlock
 0001:00013E78       TResourceManager.AllocResource
 0001:00013F5C       TResourceManager.FreeResource
 0001:0001400C       TResourceManager.ChangeResource
 0001:00014084       TResourceManager.AssignResource
 0001:000140F0       ClearColor
 0001:0001415C       PaletteChanged
 0001:00014560       ColorToRGB
 0001:00014570       ColorToIdent
 0001:00014580       IdentToColor
 0001:00014590       TGraphicsObject.Changed
 0001:000145A4       TGraphicsObject.Lock
 0001:000145B4       TGraphicsObject.Unlock
 0001:00014778       CharsetToIdent
 0001:00014788       IdentToCharset
 0001:00014798       GetFontData
 0001:0001484C       TFont.Create
 0001:000148A0       TFont.Destroy
 0001:000148C8       TFont.Changed
 0001:000148E4       TFont.Assign
 0001:000149B8       TFont.GetData
 0001:000149D0       TFont.SetData
 0001:00014A20       TFont.SetColor
 0001:00014A34       TFont.GetHandle
 0001:00014BDC       TFont.SetHandle
 0001:00014C00       TFont.GetHeight
 0001:00014C08       TFont.SetHeight
 0001:00014C30       TFont.GetName
 0001:00014C48       TFont.SetName
 0001:00014CA4       TFont.GetSize
 0001:00014CC0       TFont.SetSize
 0001:00014CE0       TFont.GetStyle
 0001:00014CEC       TFont.SetStyle
 0001:00014D18       TFont.GetPitch
 0001:00014D20       TFont.SetPitch
 0001:00014D48       TFont.GetCharset
 0001:00014D50       TFont.SetCharset
 0001:00014D78       TPen.Create
 0001:00014DBC       TPen.Destroy
 0001:00014DE4       TPen.Assign
 0001:00014E9C       TPen.GetData
 0001:00014EB4       TPen.SetData
 0001:00014F04       TPen.GetColor
 0001:00014F0C       TPen.SetColor
 0001:00014F34       TPen.GetHandle
 0001:00014FCC       TPen.SetMode
 0001:00014FE0       TPen.GetStyle
 0001:00014FE8       TPen.SetStyle
 0001:00015010       TPen.GetWidth
 0001:00015018       TPen.SetWidth
 0001:00015044       TBrush.Create
 0001:00015084       TBrush.Destroy
 0001:000150AC       TBrush.Assign
 0001:00015154       TBrush.GetData
 0001:00015174       TBrush.SetData
 0001:000151C4       TBrush.SetBitmap
 0001:000151E8       TBrush.GetColor
 0001:000151F0       TBrush.SetColor
 0001:00015224       TBrush.GetHandle
 0001:00015304       TBrush.GetStyle
 0001:0001530C       TBrush.SetStyle
 0001:00015340       TCanvas.Create
 0001:00015404       TCanvas.Destroy
 0001:00015460       TCanvas.CopyRect
 0001:000154E8       TCanvas.Draw
 0001:00015594       TCanvas.FillRect
 0001:000155D0       TCanvas.LineTo
 0001:00015608       TCanvas.Lock
 0001:00015630       TCanvas.MoveTo
 0001:0001565C       TCanvas.Polyline
 0001:00015694       TCanvas.Rectangle
 0001:000156DC       TCanvas.StretchDraw
 0001:00015718       TCanvas.GetCanvasOrientation
 0001:00015744       TCanvas.TextOut
 0001:000157D0       TCanvas.TextExtent
 0001:00015814       TCanvas.TextWidth
 0001:00015830       TCanvas.TextHeight
 0001:00015850       TCanvas.TryLock
 0001:000158AC       TCanvas.Unlock
 0001:000158D4       TCanvas.SetFont
 0001:000158E4       TCanvas.SetPen
 0001:000158F0       TCanvas.SetBrush
 0001:000158FC       TCanvas.GetPenPos
 0001:00015920       TCanvas.SetPenPos
 0001:00015940       TCanvas.GetPixel
 0001:0001596C       TCanvas.SetPixel
 0001:000159B4       TCanvas.GetHandle
 0001:000159D4       TCanvas.DeselectHandles
 0001:00015A30       TCanvas.CreateHandle
 0001:00015A34       TCanvas.SetHandle
 0001:00015A88       TCanvas.RequiredState
 0001:00015AFC       TCanvas.Changing
 0001:00015B10       TCanvas.Changed
 0001:00015B24       TCanvas.CreateFont
 0001:00015B50       TCanvas.CreatePen
 0001:00015B80       TCanvas.CreateBrush
 0001:00015BFC       TCanvas.FontChanged
 0001:00015C1C       TCanvas.PenChanged
 0001:00015C3C       TCanvas.BrushChanged
 0001:00015C5C       InvalidOperation
 0001:00015C74       InvalidGraphic
 0001:00015C8C       InvalidBitmap
 0001:00015C98       InvalidIcon
 0001:00015CA4       InvalidMetafile
 0001:00015CB0       OutOfResources
 0001:00015D04       GDIError
 0001:00015DAC       GDICheck
 0001:00015DBC       DupBits
 0001:00015F1C       GetDInColors
 0001:00015F3C       BytesPerScanline
 0001:00015F50       TransparentStretchBlt
 0001:000161E4       RGBTripleToQuad
 0001:0001621C       RGBQuadToTriple
 0001:00016294       ByteSwapColors
 0001:000162EC       CreateSystemPalette
 0001:00016404       SystemPaletteOverride
 0001:0001649C       PaletteFromDIBColorTable
 0001:00016540       PaletteToDIBColorTable
 0001:00016594       TwoBitsFromDIB
 0001:00016750       AdjustColor
 0001:0001675C       BetterSize
 0001:000167EC       ReadIcon
 0001:00016AF4       ComputeAldusChecksum
 0001:00016B0C       InitializeBitmapInfoHeader
 0001:00016BF0       InternalGetDIBSizes
 0001:00016C54       GetDIBSizes
 0001:00016C5C       InternalGetDIB
 0001:00016D0C       GetDIB
 0001:00016D20       WinError
 0001:00016D24       CheckBool
 0001:00016D30       WriteIcon
 0001:00016F2C       TGraphic.Create
 0001:00016F64       TGraphic.Changed
 0001:00016F7C       DoWrite
 0001:00016FD4       TGraphic.DefineProperties
 0001:00017020       TGraphic.Equals
 0001:00017164       TGraphic.GetPalette
 0001:00017168       TGraphic.GetTransparent
 0001:0001716C       TGraphic.LoadFromFile
 0001:000171C0       TGraphic.Progress
 0001:000171E8       TGraphic.ReadData
 0001:000171F4       TGraphic.SaveToFile
 0001:0001724C       TGraphic.SetPalette
 0001:00017250       TGraphic.SetTransparent
 0001:00017260       TGraphic.WriteData
 0001:00017308       TFileFormatsList.Create
 0001:0001743C       TFileFormatsList.Destroy
 0001:00017488       TFileFormatsList.Add
 0001:0001751C       TFileFormatsList.FindClassName
 0001:0001760C       TClipboardFormats.Create
 0001:0001768C       TClipboardFormats.Destroy
 0001:000176B8       TClipboardFormats.Add
 0001:00017720       GetFileFormats
 0001:00017740       GetClipboardFormats
 0001:00017760       TPicture.Create
 0001:000177A0       TPicture.Destroy
 0001:000177D0       TPicture.AssignTo
 0001:00017804       TPicture.SetGraphic
 0001:000178B4       TPicture.Assign
 0001:00017910       TPicture.Changed
 0001:00017934       TPicture.Progress
 0001:0001795C       TPicture.ReadData
 0001:00017A74       TPicture.WriteData
 0001:00017AD0       DoWrite
 0001:00017B4C       TPicture.DefineProperties
 0001:00017B98       TPicture.GetWidth
 0001:00017BB0       TPicture.GetHeight
 0001:00017BC8       TMetafileImage.Destroy
 0001:00017C04       TMetafileImage.FreeHandle
 0001:00017C08       TMetafile.Create
 0001:00017C50       TMetafile.Destroy
 0001:00017C80       TMetafile.Assign
 0001:00017D14       TMetafile.Draw
 0001:00017DA8       TMetafile.GetEmpty
 0001:00017DB0       TMetafile.GetHeight
 0001:00017E14       TMetafile.GetPalette
 0001:00017EA0       TMetafile.GetWidth
 0001:00017F04       TMetafile.LoadFromStream
 0001:00017F58       TMetafile.NewImage
 0001:00017F80       TMetafile.ReadData
 0001:00017FEC       TMetafile.ReadEMFStream
 0001:000180BC       TMetafile.ReadWMFStream
 0001:0001823C       TMetafile.SaveToFile
 0001:000182C8       TMetafile.SaveToStream
 0001:000182E4       TMetafile.SetHeight
 0001:00018358       TMetafile.SetMMHeight
 0001:00018394       TMetafile.SetMMWidth
 0001:000183D0       TMetafile.SetTransparent
 0001:000183D4       TMetafile.SetWidth
 0001:00018448       TMetafile.TestEMF
 0001:000184A8       TMetafile.UniqueImage
 0001:0001852C       TMetafile.WriteData
 0001:000185B0       TMetafile.WriteEMFStream
 0001:0001863C       TMetafile.WriteWMFStream
 0001:00018784       TMetafile.LoadFromClipboardFormat
 0001:00018808       TMetafile.SaveToClipboardFormat
 0001:000188D8       FreeMemoryContexts
 0001:00018984       DeselectBitmap
 0001:00018A00       TBitmapCanvas.Create
 0001:00018A3C       TBitmapCanvas.Destroy
 0001:00018A68       TBitmapCanvas.FreeContext
 0001:00018B08       TBitmapCanvas.CreateHandle
 0001:00018BF4       TSharedImage.Reference
 0001:00018BF8       TSharedImage.Release
 0001:00018C18       TBitmapImage.Destroy
 0001:00018C74       TBitmapImage.FreeHandle
 0001:00018CC0       UpdateDIBColorTable
 0001:00018D7C       FixupBitFields
 0001:00018DC8       CopyBitmap
 0001:00019424       CopyPalette
 0001:00019488       CopyBitmapAsMask
 0001:00019694       TBitmap.Create
 0001:000196FC       TBitmap.Destroy
 0001:00019738       TBitmap.Assign
 0001:00019828       TBitmap.CopyImage
 0001:000198E8       TBitmap.Changing
 0001:0001990C       TBitmap.Changed
 0001:00019918       TBitmap.Dormant
 0001:00019934       TBitmap.Draw
 0001:00019B84       TBitmap.FreeImage
 0001:00019BE8       TBitmap.GetEmpty
 0001:00019C00       TBitmap.GetCanvas
 0001:00019C40       TBitmap.GetHandle
 0001:00019C64       TBitmap.GetHandleType
 0001:00019C90       TBitmap.GetHeight
 0001:00019CA0       TBitmap.GetMaskHandle
 0001:00019CB4       TBitmap.GetMonochrome
 0001:00019CD0       TBitmap.GetPalette
 0001:00019CE4       TBitmap.GetTransparentColor
 0001:00019D2C       TBitmap.GetWidth
 0001:00019D34       TBitmap.DIBNeeded
 0001:00019DA8       TBitmap.FreeContext
 0001:00019DB8       TBitmap.HandleNeeded
 0001:00019DC8       TBitmap.MaskHandleNeeded
 0001:00019E28       TBitmap.PaletteNeeded
 0001:00019EE0       TBitmap.LoadFromClipboardFormat
 0001:00019F64       TBitmap.LoadFromStream
 0001:00019F88       TBitmap.NewImage
 0001:0001A088       TBitmap.ReadData
 0001:0001A0B0       TBitmap.ReadDIB
 0001:0001A5C0       TBitmap.ReadStream
 0001:0001A630       TBitmap.SetHandle
 0001:0001A6F4       TBitmap.SetHandleType
 0001:0001A82C       TBitmap.SetHeight
 0001:0001A880       TBitmap.SetMonochrome
 0001:0001A900       TBitmap.SetPalette
 0001:0001A9D4       TBitmap.SetTransparentColor
 0001:0001AA24       TBitmap.SetWidth
 0001:0001AA78       TBitmap.WriteData
 0001:0001AA80       TBitmap.WriteStream
 0001:0001AD1C       TBitmap.SaveToStream
 0001:0001AD24       TBitmap.SaveToClipboardFormat
 0001:0001ADC4       TIconImage.Destroy
 0001:0001ADF4       TIconImage.FreeHandle
 0001:0001AE0C       TIcon.Create
 0001:0001AE60       TIcon.Destroy
 0001:0001AE90       TIcon.Assign
 0001:0001AEF0       TIcon.Draw
 0001:0001AF30       TIcon.GetEmpty
 0001:0001AF48       TIcon.GetHandle
 0001:0001AF5C       TIcon.GetHeight
 0001:0001AF70       TIcon.GetWidth
 0001:0001AF84       TIcon.HandleNeeded
 0001:0001AFFC       TIcon.ImageNeeded
 0001:0001B0B0       TIcon.LoadFromStream
 0001:0001B168       TIcon.NewImage
 0001:0001B1DC       TIcon.SetHandle
 0001:0001B1F4       TIcon.SetHeight
 0001:0001B20C       TIcon.SetTransparent
 0001:0001B210       TIcon.SetWidth
 0001:0001B228       TIcon.SaveToStream
 0001:0001B254       TIcon.LoadFromClipboardFormat
 0001:0001B268       TIcon.SaveToClipboardFormat
 0001:0001B27C       InitScreenLogPixels
 0001:0001B2B4       GetDefFontCharSet
 0001:0001B2F8       InitDefFontData
 0001:0001B3C8       TPatternManager.Create
 0001:0001B400       TPatternManager.Destroy
 0001:0001B42C       TPatternManager.Lock
 0001:0001B438       TPatternManager.Unlock
 0001:0001B444       TPatternManager.AllocPattern
 0001:0001B4F8       TPatternManager.CreateBitmap
 0001:0001B5F8       TPatternManager.FreePatterns
 0001:0001B670       AllocPatternBitmap
 0001:0001B6A8       Finalization
 0001:0001B77C       Graphics
 0001:0001B940       TOrderedList.Pop
 0001:0001B948       TOrderedList.Push
 0001:0001B950       TOrderedList.Create
 0001:0001B994       TOrderedList.Destroy
 0001:0001B9C4       TOrderedList.PeekItem
 0001:0001B9D8       TOrderedList.PopItem
 0001:0001B9F8       TStack.PushItem
 0001:0001BA04       Finalization
 0001:0001BA34       Contnrs
 0001:0001BA3C       ImageList_Create
 0001:0001BA44       ImageList_Destroy
 0001:0001BA4C       ImageList_GetImageCount
 0001:0001BA54       ImageList_Add
 0001:0001BA5C       ImageList_ReplaceIcon
 0001:0001BA64       ImageList_SetBkColor
 0001:0001BA6C       ImageList_GetBkColor
 0001:0001BA74       ImageList_AddIcon
 0001:0001BA80       ImageList_Draw
 0001:0001BA88       ImageList_Replace
 0001:0001BA90       ImageList_DrawEx
 0001:0001BA98       ImageList_Remove
 0001:0001BAA0       ImageList_BeginDrag
 0001:0001BAA8       ImageList_EndDrag
 0001:0001BAB0       ImageList_DragEnter
 0001:0001BAB8       ImageList_DragLeave
 0001:0001BAC0       ImageList_DragMove
 0001:0001BAC8       ImageList_SetDragCursorImage
 0001:0001BAD0       ImageList_DragShowNolock
 0001:0001BAD8       ImageList_GetDragImage
 0001:0001BAE0       ImageList_Read
 0001:0001BAE8       ImageList_Write
 0001:0001BAF0       ImageList_GetIconSize
 0001:0001BAF8       ImageList_SetIconSize
 0001:0001BB00       Finalization
 0001:0001BB30       Commctrl
 0001:0001BB38       InitAnApi
 0001:0001BC20       _GetSystemMetrics
 0001:0001BCA8       xMonitorFromRect
 0001:0001BD38       xMonitorFromWindow
 0001:0001BDD0       xMonitorFromPoint
 0001:0001BE68       xGetMonitorInfoA
 0001:0001BF40       xGetMonitorInfoW
 0001:0001C018       xGetMonitorInfo
 0001:0001C0F0       xEnumDisplayMonitors
 0001:0001C220       InitMultiMonStubs
 0001:0001C28C       Finalization
 0001:0001C2BC       MultiMon
 0001:0001C2CC       Finalization
 0001:0001C2FC       Imm
 0001:0001C304       Max
 0001:0001C30C       Finalization
 0001:0001C33C       Math
 0001:0001C344       Finalization
 0001:0001C374       WinSpool
 0001:0001C37C       Finalization
 0001:0001C3B8       Printers
 0001:0001C3C0       FlatSB_SetScrollProp
 0001:0001C3F4       InitializeFlatSB
 0001:0001C41C       InitFlatSB
 0001:0001C6A0       Finalization
 0001:0001C6D0       FlatSB
 0001:000206C8       HasPopup
 0001:000208D4       TCustomLabel.Create
 0001:00020940       TCustomLabel.GetLabelText
 0001:00020954       TCustomLabel.DoDrawText
 0001:00020AC4       TCustomLabel.Paint
 0001:00020BC8       TCustomLabel.Loaded
 0001:00020BE0       TCustomLabel.AdjustBounds
 0001:00020CAC       TCustomLabel.SetAlignment
 0001:00020CC0       TCustomLabel.SetAutoSize
 0001:00020CDC       TCustomLabel.GetTransparent
 0001:00020CE8       TCustomLabel.SetFocusControl
 0001:00020CFC       TCustomLabel.SetShowAccelChar
 0001:00020D10       TCustomLabel.SetTransparent
 0001:00020D50       TCustomLabel.SetLayout
 0001:00020D64       TCustomLabel.SetWordWrap
 0001:00020D8C       TCustomLabel.Notification
 0001:00020DBC       TCustomLabel.CMTextChanged
 0001:00020DD4       TCustomLabel.CMFontChanged
 0001:00020DF0       TCustomLabel.CMDialogChar
 0001:00020E8C       TCustomEdit.Create
 0001:00020F34       TCustomEdit.DoSetMaxLength
 0001:00020F54       TCustomEdit.SetAutoSize
 0001:00020F68       TCustomEdit.SetBorderStyle
 0001:00020F8C       TCustomEdit.SetCharCase
 0001:00020FA0       TCustomEdit.SetHideSelection
 0001:00020FB4       TCustomEdit.SetMaxLength
 0001:00020FE4       TCustomEdit.SetOEMConvert
 0001:00020FF8       TCustomEdit.GetModified
 0001:00021030       TCustomEdit.SetModified
 0001:00021068       TCustomEdit.SetPasswordChar
 0001:000210F0       TCustomEdit.SetReadOnly
 0001:0002112C       TCustomEdit.GetSelStart
 0001:00021150       TCustomEdit.SetSelStart
 0001:00021170       TCustomEdit.GetSelLength
 0001:000211A0       TCustomEdit.SetSelLength
 0001:00021204       TCustomEdit.Clear
 0001:00021220       TCustomEdit.SelectAll
 0001:0002123C       TCustomEdit.GetSelTextBuf
 0001:000212D8       TCustomEdit.GetSelText
 0001:00021374       TCustomEdit.CreateParams
 0001:00021430       TCustomEdit.CreateWindowHandle
 0001:000214A0       TCustomEdit.CreateWnd
 0001:00021544       TCustomEdit.DestroyWnd
 0001:00021560       TCustomEdit.UpdateHeight
 0001:0002159C       TCustomEdit.AdjustHeight
 0001:00021644       TCustomEdit.Change
 0001:00021668       TCustomEdit.DefaultHandler
 0001:000216A0       TCustomEdit.WMSetFont
 0001:000216E0       TCustomEdit.CMCtl3DChanged
 0001:00021714       TCustomEdit.CMFontChanged
 0001:0002173C       TCustomEdit.CNCommand
 0001:0002175C       TCustomEdit.CMEnter
 0001:00021798       TCustomEdit.CMTextChanged
 0001:000217D0       TComboBoxStrings.GetCount
 0001:000217EC       TComboBoxStrings.Get
 0001:00021830       TComboBoxStrings.GetObject
 0001:000218A8       TComboBoxStrings.PutObject
 0001:000218CC       TComboBoxStrings.Add
 0001:00021950       TComboBoxStrings.Insert
 0001:000219D0       TComboBoxStrings.Delete
 0001:000219F0       TComboBoxStrings.Clear
 0001:00021A60       TComboBoxStrings.SetUpdateState
 0001:00021A94       TComboBoxStrings.IndexOf
 0001:00021ABC       TCustomComboBox.Create
 0001:00021BB8       TCustomComboBox.Destroy
 0001:00021C2C       TCustomComboBox.GetDroppedDown
 0001:00021C50       TCustomComboBox.SetDroppedDown
 0001:00021C98       TCustomComboBox.GetItemIndex
 0001:00021CB4       TCustomComboBox.SetItemIndex
 0001:00021CE0       TCustomComboBox.SetMaxLength
 0001:00021D20       TCustomComboBox.SetSorted
 0001:00021D34       TCustomComboBox.SetStyle
 0001:00021D74       TCustomComboBox.GetItemHeight
 0001:00021D98       TCustomComboBox.SetItemHeight
 0001:00021DA8       TCustomComboBox.SetItems
 0001:00021DB8       TCustomComboBox.CreateParams
 0001:00021E1C       TCustomComboBox.CreateWnd
 0001:00021F80       TCustomComboBox.DestroyWnd
 0001:00021FCC       TCustomComboBox.WMCreate
 0001:00021FF0       TCustomComboBox.WMEraseBkgnd
 0001:00022044       TCustomComboBox.WMDrawItem
 0001:0002204C       TCustomComboBox.WMMeasureItem
 0001:00022054       TCustomComboBox.WMDeleteItem
 0001:0002205C       TCustomComboBox.WMGetDlgCode
 0001:00022080       TCustomComboBox.CMCancelMode
 0001:00022094       TCustomComboBox.CMCtl3DChanged
 0001:000220B8       TCustomComboBox.CMParentColorChanged
 0001:000220E0       TCustomComboBox.EditWndProc
 0001:000221D8       TCustomComboBox.ListWndProc
 0001:000221FC       TCustomComboBox.GetComboControl
 0001:00022204       TCustomComboBox.ComboWndProc
 0001:000224E0       TCustomComboBox.WndProc
 0001:0002262C       TCustomComboBox.AdjustDropDown
 0001:000226E8       TCustomComboBox.CNCommand
 0001:00022834       TCustomComboBox.Change
 0001:00022858       TCustomComboBox.DrawItem
 0001:00022910       TCustomComboBox.DropDown
 0001:00022930       TCustomComboBox.MeasureItem
 0001:00022950       TCustomComboBox.CNDrawItem
 0001:00022A20       TCustomComboBox.CNMeasureItem
 0001:00022A50       TCustomComboBox.WMLButtonDown
 0001:00022AC8       TCustomComboBox.Focused
 0001:00022AFC       TButtonActionLink.AssignClient
 0001:00022B20       TButtonActionLink.IsCheckedLinked
 0001:00022B58       TButtonActionLink.SetChecked
 0001:00022BBC       TButtonControl.Create
 0001:00022C10       TButtonControl.ActionChange
 0001:00022C58       TButtonControl.GetActionLinkClass
 0001:00022C60       TButtonControl.GetChecked
 0001:00022C64       TButtonControl.IsCheckedStored
 0001:00022C84       TButtonControl.SetChecked
 0001:00022C88       TButtonControl.WndProc
 0001:00022D00       TButton.Create
 0001:00022D64       TButton.Click
 0001:00022D88       TButton.UseRightToLeftAlignment
 0001:00022D8C       TButton.SetButtonStyle
 0001:00022DE0       TButton.SetDefault
 0001:00022E14       TButton.CreateParams
 0001:00022E50       TButton.CreateWnd
 0001:00022E68       TButton.CNCommand
 0001:00022E7C       TButton.CMDialogKey
 0001:00022EEC       TButton.CMDialogChar
 0001:00022F70       TButton.CMFocusChanged
 0001:00022FC4       TButton.WMEraseBkgnd
 0001:00022FCC       TCustomCheckBox.Create
 0001:00023038       TCustomCheckBox.GetControlsAlignment
 0001:00023064       TCustomCheckBox.Toggle
 0001:000230A4       TCustomCheckBox.Click
 0001:000230B8       TCustomCheckBox.GetChecked
 0001:000230C4       TCustomCheckBox.SetAlignment
 0001:000230D8       TCustomCheckBox.SetChecked
 0001:000230EC       TCustomCheckBox.SetState
 0001:0002313C       TCustomCheckBox.CreateParams
 0001:00023198       TCustomCheckBox.CreateWnd
 0001:000231C4       TCustomCheckBox.WMSize
 0001:000231D8       TCustomCheckBox.CMCtl3DChanged
 0001:000231E0       TCustomCheckBox.CMDialogChar
 0001:0002327C       TCustomCheckBox.CNCommand
 0001:0002328C       TRadioButton.Create
 0001:000232EC       TRadioButton.GetChecked
 0001:000232F4       TRadioButton.GetControlsAlignment
 0001:00023320       TRadioButton.SetAlignment
 0001:00023334       TurnSiblingsOff
 0001:0002339C       TRadioButton.SetChecked
 0001:00023424       TRadioButton.CreateParams
 0001:0002347C       TRadioButton.CreateWnd
 0001:000234A8       TRadioButton.CMCtl3DChanged
 0001:000234B0       TRadioButton.CMDialogChar
 0001:00023534       TRadioButton.CNCommand
 0001:00023568       TListBoxStrings.GetCount
 0001:00023584       TListBoxStrings.Get
 0001:00023628       TListBoxStrings.GetObject
 0001:00023698       TListBoxStrings.Put
 0001:00023710       TListBoxStrings.PutObject
 0001:0002372C       TListBoxStrings.Add
 0001:000237B0       TListBoxStrings.Insert
 0001:00023830       TListBoxStrings.Delete
 0001:0002384C       TListBoxStrings.Exchange
 0001:00023988       TListBoxStrings.Clear
 0001:00023998       TListBoxStrings.SetUpdateState
 0001:000239CC       TListBoxStrings.IndexOf
 0001:000239F4       TListBoxStrings.Move
 0001:00023AEC       TCustomListBox.Create
 0001:00023BC4       TCustomListBox.Destroy
 0001:00023C0C       TCustomListBox.GetItemData
 0001:00023C2C       TCustomListBox.SetItemData
 0001:00023C50       TCustomListBox.InternalGetItemData
 0001:00023C5C       TCustomListBox.InternalSetItemData
 0001:00023C74       TCustomListBox.DeleteString
 0001:00023C94       TCustomListBox.ResetContent
 0001:00023CB0       TCustomListBox.SetColumnWidth
 0001:00023CF4       TCustomListBox.SetColumns
 0001:00023D38       TCustomListBox.GetItemIndex
 0001:00023D74       TCustomListBox.SetItemIndex
 0001:00023DC0       TCustomListBox.SetExtendedSelect
 0001:00023DD4       TCustomListBox.SetIntegralHeight
 0001:00023DFC       TCustomListBox.GetItemHeight
 0001:00023E40       TCustomListBox.SetItemHeight
 0001:00023E58       TCustomListBox.SetTabWidth
 0001:00023E74       TCustomListBox.SetMultiSelect
 0001:00023E88       TCustomListBox.GetSelected
 0001:00023ED8       TCustomListBox.SetSorted
 0001:00023EEC       TCustomListBox.SetStyle
 0001:00023F00       TCustomListBox.GetTopIndex
 0001:00023F1C       TCustomListBox.SetBorderStyle
 0001:00023F30       TCustomListBox.SetTopIndex
 0001:00023F5C       TCustomListBox.SetItems
 0001:00023F6C       TCustomListBox.ItemAtPos
 0001:00023FF8       TCustomListBox.CreateParams
 0001:000240F8       TCustomListBox.CreateWnd
 0001:00024198       TCustomListBox.DestroyWnd
 0001:000241F0       TCustomListBox.WndProc
 0001:00024258       TCustomListBox.WMLButtonDown
 0001:000242F4       TCustomListBox.CNCommand
 0001:00024328       PaintListBox
 0001:0002448C       TCustomListBox.WMPaint
 0001:000244BC       TCustomListBox.WMSize
 0001:000244D0       TCustomListBox.DragCanceled
 0001:00024530       TCustomListBox.DrawItem
 0001:00024644       TCustomListBox.MeasureItem
 0001:00024664       TCustomListBox.CNDrawItem
 0001:00024720       TCustomListBox.CNMeasureItem
 0001:0002474C       TCustomListBox.CMCtl3DChanged
 0001:00024778       Finalization
 0001:000247A8       StdCtrls
 0001:000247B0       Finalization
 0001:000247EC       Clipbrd
 0001:0002492C       THintAction.Create
 0001:00024968       Finalization
 0001:00024998       StdActns
 0001:00026834       ChangeBiDiModeAlignment
 0001:00026848       InitWndProc
 0001:00026900       FindControl
 0001:0002691C       SendAppMessage
 0001:00026AE0       CursorToIdent
 0001:00026AF0       IdentToCursor
 0001:00026B00       GetShortHint
 0001:00026B44       GetLongHint
 0001:00026B88       GetCaptureControl
 0001:00026BB0       SetCaptureControl
 0001:00026C5C       TSiteList.Find
 0001:00026C90       GetTopParent
 0001:00026CB8       TSiteList.AddSite
 0001:00026D14       TSiteList.Clear
 0001:00026D48       TSiteList.GetTopSite
 0001:00026DAC       TDragObject.Assign
 0001:00026DEC       TDragObject.Capture
 0001:00026E04       TDragObject.Finished
 0001:00026E0C       TDragObject.GetName
 0001:00026E34       TDragObject.ReleaseCapture
 0001:00026E48       TDragObject.MouseMsg
 0001:00026F38       TDragObject.GetDragImages
 0001:00026F3C       TDragObject.GetDragCursor
 0001:00026F54       TDragObject.HideDragImage
 0001:00026F58       TDragObject.Instance
 0001:00026F60       TDragObject.ShowDragImage
 0001:00026F64       TBaseDragControlObject.Create
 0001:00026F88       TBaseDragControlObject.Assign
 0001:00026FB4       TBaseDragControlObject.EndDrag
 0001:00026FD8       TBaseDragControlObject.Finished
 0001:0002700C       TDragControlObject.GetDragCursor
 0001:00027024       TDragControlObject.GetDragImages
 0001:00027030       TDragControlObject.HideDragImage
 0001:00027050       TDragControlObject.ShowDragImage
 0001:00027070       TDragDockObject.Create
 0001:000270D4       TDragDockObject.Destroy
 0001:00027104       TDragDockObject.Assign
 0001:00027168       TDragDockObject.EndDrag
 0001:00027188       AbsMin
 0001:000271AC       TDragDockObject.AdjustDockRect
 0001:0002722C       TDragDockObject.DrawDragDockImage
 0001:00027240       TDragDockObject.EraseDragDockImage
 0001:00027254       TDragDockObject.GetDragCursor
 0001:00027260       TDragDockObject.GetFrameWidth
 0001:00027268       IsBeforeTargetWindow
 0001:000272D4       ValidDockTarget
 0001:0002746C       IsSiteChildOfClient
 0001:000274B0       GetDockSiteAtPos
 0001:000275FC       RegisterDockSite
 0001:0002765C       DragMessage
 0001:000276B4       IsDelphiHandle
 0001:000276D8       DragFindWindow
 0001:00027704       DragFindTarget
 0001:00027754       DoDragOver
 0001:00027790       GetDropCtl
 0001:00027824       DragTo
 0001:00027AF8       DragInit
 0001:00027C68       DragInitControl
 0001:00027E30       CheckUndock
 0001:00027EA0       DragDone
 0001:00028100       CancelDrag
 0001:00028118       FindVCLWindow
 0001:0002814C       FindDragTarget
 0001:00028194       ListAdd
 0001:000281BC       ListRemove
 0001:000281DC       MoveWindowOrg
 0001:0002820C       FreeDeviceContext
 0001:000282C8       FreeDeviceContexts
 0001:00028374       TControlCanvas.Destroy
 0001:000283A0       TControlCanvas.CreateHandle
 0001:00028448       TControlCanvas.FreeHandle
 0001:0002847C       TControlCanvas.SetControl
 0001:00028494       TControlCanvas.UpdateTextFlags
 0001:000284C0       TSizeConstraints.Create
 0001:000284FC       TSizeConstraints.AssignTo
 0001:00028548       TSizeConstraints.SetConstraints
 0001:000285F0       TSizeConstraints.Change
 0001:00028604       TControlActionLink.AssignClient
 0001:00028620       TControlActionLink.DoShowHint
 0001:00028708       TControlActionLink.IsCaptionLinked
 0001:0002877C       TControlActionLink.IsEnabledLinked
 0001:000287B0       TControlActionLink.IsHintLinked
 0001:000287E4       TControlActionLink.IsVisibleLinked
 0001:00028814       TControlActionLink.IsOnExecuteLinked
 0001:0002883C       TControlActionLink.SetCaption
 0001:0002885C       TControlActionLink.SetEnabled
 0001:0002887C       TControlActionLink.SetHint
 0001:000288A0       TControlActionLink.SetVisible
 0001:000288C0       TControlActionLink.SetOnExecute
 0001:000288EC       TControl.Create
 0001:000289BC       TControl.Destroy
 0001:00028A74       TControl.GetDragImages
 0001:00028A78       TControl.GetEnabled
 0001:00028A7C       TControl.GetPalette
 0001:00028A80       TControl.HasParent
 0001:00028A88       TControl.GetParentComponent
 0001:00028A8C       TControl.SetParentComponent
 0001:00028AB4       TControl.PaletteChanged
 0001:00028B30       TControl.GetAction
 0001:00028B40       TControl.SetAnchors
 0001:00028B60       TControl.SetAction
 0001:00028BDC       TControl.IsAnchorsStored
 0001:00028BF4       TControl.SetDragMode
 0001:00028BF8       TControl.RequestAlign
 0001:00028C08       TControl.Resize
 0001:00028C28       TControl.ReadState
 0001:00028CBC       TControl.Notification
 0001:00028D00       TControl.SetAlign
 0001:00028D94       TControl.SetBounds
 0001:00028E2C       TControl.UpdateAnchorRules
 0001:00028F08       TControl.SetLeft
 0001:00028F28       TControl.SetTop
 0001:00028F4C       TControl.SetWidth
 0001:00028F6C       TControl.SetHeight
 0001:00028F8C       TControl.Dock
 0001:00029098       TControl.DoDock
 0001:000290F0       TControl.GetBoundsRect
 0001:00029110       TControl.SetBoundsRect
 0001:00029134       TControl.GetClientRect
 0001:0002914C       TControl.GetClientWidth
 0001:00029164       TControl.SetClientWidth
 0001:00029190       TControl.GetClientHeight
 0001:000291A8       TControl.SetClientHeight
 0001:000291D0       TControl.GetClientOrigin
 0001:00029260       TControl.ClientToScreen
 0001:0002928C       TControl.ScreenToClient
 0001:000292B8       TControl.SendCancelMode
 0001:000292E8       TControl.SendDockNotification
 0001:00029354       TControl.Changed
 0001:00029364       TControl.ChangeScale
 0001:000294A8       TControl.SetAutoSize
 0001:000294C8       TControl.SetName
 0001:0002956C       TControl.SetClientSize
 0001:000295B4       TControl.SetParent
 0001:00029600       TControl.SetVisible
 0001:00029644       TControl.SetEnabled
 0001:0002965C       TControl.GetTextLen
 0001:0002966C       TControl.GetTextBuf
 0001:00029678       TControl.GetUndockHeight
 0001:0002968C       TControl.GetUndockWidth
 0001:000296A0       TControl.SetPopupMenu
 0001:000296C4       TControl.SetTextBuf
 0001:000296E8       TControl.GetText
 0001:00029718       TControl.SetText
 0001:0002977C       TControl.SetBiDiMode
 0001:00029798       TControl.FontChanged
 0001:000297D4       TControl.SetFont
 0001:000297E4       TControl.IsFontStored
 0001:000297F8       TControl.IsShowHintStored
 0001:00029804       TControl.IsBiDiModeStored
 0001:0002980C       TControl.SetParentFont
 0001:0002982C       TControl.SetShowHint
 0001:00029850       TControl.SetParentShowHint
 0001:00029874       TControl.SetColor
 0001:00029890       TControl.IsColorStored
 0001:00029898       TControl.SetParentColor
 0001:000298B8       TControl.SetParentBiDiMode
 0001:000298D8       TControl.SetCursor
 0001:000298F4       TControl.GetMouseCapture
 0001:00029904       TControl.SetMouseCapture
 0001:0002992C       TControl.BringToFront
 0001:0002993C       TControl.SetZOrderPosition
 0001:000299BC       TControl.SetZOrder
 0001:000299E0       TControl.GetDeviceContext
 0001:00029A88       BackgroundClipped
 0001:00029B14       TControl.InvalidateControl
 0001:00029BA0       TControl.Invalidate
 0001:00029BB0       TControl.Update
 0001:00029BC4       TControl.Refresh
 0001:00029BCC       TControl.Repaint
 0001:00029CC4       TControl.GetControlsAlignment
 0001:00029CC8       TControl.UseRightToLeftReading
 0001:00029CE0       TControl.UseRightToLeftAlignment
 0001:00029CF8       TControl.UseRightToLeftScrollBar
 0001:00029D14       TControl.BeginAutoDrag
 0001:00029D2C       TControl.BeginDrag
 0001:00029DF0       TControl.DragCanceled
 0001:00029DF4       TControl.Dragging
 0001:00029E00       TControl.DragOver
 0001:00029E3C       TControl.DragDrop
 0001:00029E68       TControl.DoStartDrag
 0001:00029E88       TControl.DoEndDrag
 0001:00029EB4       TControl.PositionDockRect
 0001:00029F84       TControl.DockTrackNoTarget
 0001:00029F98       TControl.DoEndDock
 0001:00029FC4       TControl.DoStartDock
 0001:00029FE4       TControl.DefaultDockImage
 0001:0002A114       TControl.DrawDragDockImage
 0001:0002A124       TControl.EraseDragDockImage
 0001:0002A134       TControl.DoDragMsg
 0001:0002A224       TControl.ManualDock
 0001:0002A40C       TControl.ManualFloat
 0001:0002A4AC       TControl.DoConstraintsChange
 0001:0002A4B8       TControl.CanAutoSize
 0001:0002A4BC       TControl.CanResize
 0001:0002A4EC       TControl.DoCanAutoSize
 0001:0002A558       TControl.DoCanResize
 0001:0002A588       TControl.ConstrainedResize
 0001:0002A5B8       TControl.DoConstrainedResize
 0001:0002A68C       TControl.Perform
 0001:0002A6C0       TControl.CalcDockSizes
 0001:0002A730       TControl.UpdateBoundsRect
 0001:0002A754       TControl.VisibleChanging
 0001:0002A758       TControl.WndProc
 0001:0002A870       TControl.DefaultHandler
 0001:0002A8F8       TControl.ReadIsControl
 0001:0002A90C       TControl.WriteIsControl
 0001:0002A918       DoWrite
 0001:0002A948       TControl.DefineProperties
 0001:0002A998       TControl.Click
 0001:0002AA04       TControl.DblClick
 0001:0002AA24       TControl.MouseDown
 0001:0002AA5C       TControl.DoMouseDown
 0001:0002AAA0       TControl.WMLButtonDown
 0001:0002AAEC       TControl.WMNCLButtonDown
 0001:0002AB08       TControl.WMLButtonDblClk
 0001:0002AB5C       TControl.GetPopupMenu
 0001:0002AB60       TControl.CheckNewSize
 0001:0002ABFC       TControl.WMRButtonDown
 0001:0002AC24       TControl.WMRButtonDblClk
 0001:0002AC4C       TControl.WMMButtonDown
 0001:0002AC74       TControl.WMMButtonDblClk
 0001:0002AC9C       TControl.MouseMove
 0001:0002ACCC       TControl.WMMouseMove
 0001:0002AD08       TControl.MouseUp
 0001:0002AD40       TControl.DoMouseUp
 0001:0002AD7C       TControl.WMLButtonUp
 0001:0002ADF4       TControl.WMRButtonUp
 0001:0002AE14       TControl.WMMButtonUp
 0001:0002AE34       TControl.WMCancelMode
 0001:0002AE74       TControl.WMWindowPosChanged
 0001:0002AF24       TControl.CMVisibleChanged
 0001:0002AF4C       TControl.CMEnabledChanged
 0001:0002AF54       TControl.CMFontChanged
 0001:0002AF5C       TControl.CMColorChanged
 0001:0002AF64       TControl.CMParentColorChanged
 0001:0002AF94       TControl.CMParentBiDiModeChanged
 0001:0002AFB4       TControl.CMBiDiModeChanged
 0001:0002AFCC       TControl.CMParentShowHintChanged
 0001:0002AFF4       TControl.CMParentFontChanged
 0001:0002B024       TControl.CMSysFontChanged
 0001:0002B044       TControl.CMHitTest
 0001:0002B04C       TControl.CMMouseEnter
 0001:0002B064       TControl.CMMouseLeave
 0001:0002B07C       TControl.CMDesignHitTest
 0001:0002B084       TControl.CreateFloatingDockSite
 0001:0002B10C       UpdateFloatingDockSitePos
 0001:0002B198       TControl.CMFloat
 0001:0002B1F8       TControl.ActionChange
 0001:0002B2EC       TControl.DoActionChange
 0001:0002B310       TControl.GetActionLinkClass
 0001:0002B318       TControl.IsCaptionStored
 0001:0002B338       TControl.IsEnabledStored
 0001:0002B358       TControl.IsHintStored
 0001:0002B378       TControl.IsVisibleStored
 0001:0002B398       TControl.IsOnClickStored
 0001:0002B3B8       TControl.Loaded
 0001:0002B3F0       TControl.AssignTo
 0001:0002B498       MinVar
 0001:0002B4D4       TControl.GetDockEdge
 0001:0002B584       TControl.GetFloating
 0001:0002B5B0       TControl.GetFloatingDockSiteClass
 0001:0002B5B8       TControl.AdjustSize
 0001:0002B5D4       TControl.DrawTextBiDiModeFlags
 0001:0002B614       TControl.DrawTextBiDiModeFlagsReadingOnly
 0001:0002B630       TControl.InitiateAction
 0001:0002B640       TControl.CMHintShow
 0001:0002B66C       TControl.WMContextMenu
 0001:0002B780       TControl.DoContextPopup
 0001:0002B7B4       TWinControlActionLink.AssignClient
 0001:0002B7D8       TWinControlActionLink.IsHelpContextLinked
 0001:0002B80C       TWinControlActionLink.SetHelpContext
 0001:0002B82C       TWinControl.Create
 0001:0002B948       TWinControl.Destroy
 0001:0002BA1C       TWinControl.FixupTabList
 0001:0002BAF0       TWinControl.ReadState
 0001:0002BB68       TWinControl.AdjustClientRect
 0001:0002BB6C       InsertBefore
 0001:0002BBCC       DoPosition
 0001:0002BF68       DoAlign
 0001:0002C0BC       AlignWork
 0001:0002C110       TWinControl.AlignControls
 0001:0002C1FC       TWinControl.AlignControl
 0001:0002C290       TWinControl.DisableAlign
 0001:0002C298       TWinControl.EnableAlign
 0001:0002C2B8       TWinControl.Realign
 0001:0002C2C0       TWinControl.DoFlipChildren
 0001:0002C394       TWinControl.FlipChildren
 0001:0002C4D4       TWinControl.ContainsControl
 0001:0002C4E8       TWinControl.RemoveFocus
 0001:0002C508       TWinControl.Insert
 0001:0002C554       TWinControl.Remove
 0001:0002C59C       TWinControl.InsertControl
 0001:0002C670       TWinControl.RemoveControl
 0001:0002C6EC       TWinControl.GetControl
 0001:0002C728       TWinControl.GetControlCount
 0001:0002C748       TWinControl.Broadcast
 0001:0002C788       TWinControl.NotifyControls
 0001:0002C7B0       TWinControl.CreateSubClass
 0001:0002C81C       TWinControl.AddBiDiModeExStyle
 0001:0002C884       TWinControl.CreateParams
 0001:0002C9B0       TWinControl.CreateWnd
 0001:0002CB48       TWinControl.CreateWindowHandle
 0001:0002CB8C       TWinControl.DestroyWnd
 0001:0002CBE4       TWinControl.DestroyWindowHandle
 0001:0002CC48       TWinControl.PrecedingWindow
 0001:0002CC90       TWinControl.CreateHandle
 0001:0002CD28       TWinControl.DestroyHandle
 0001:0002CD70       TWinControl.RecreateWnd
 0001:0002CD88       TWinControl.CMRecreateWnd
 0001:0002CDC4       TWinControl.UpdateShowing
 0001:0002CEC0       TWinControl.UpdateControlState
 0001:0002CF00       TWinControl.MainWndProc
 0001:0002CF78       GetControlAtPos
 0001:0002D030       TWinControl.ControlAtPos
 0001:0002D0C4       TWinControl.IsControlMouseMsg
 0001:0002D158       TWinControl.WndProc
 0001:0002D338       TWinControl.DefaultHandler
 0001:0002D434       DoControlMsg
 0001:0002D468       TWinControl.PaintHandler
 0001:0002D598       TWinControl.PaintWindow
 0001:0002D5C0       TWinControl.PaintControls
 0001:0002D7F0       TWinControl.WMPaint
 0001:0002D950       TWinControl.WMCommand
 0001:0002D970       TWinControl.WMNotify
 0001:0002D994       TWinControl.WMSysColorChange
 0001:0002D9B0       TWinControl.WMWinIniChange
 0001:0002D9C4       TWinControl.WMFontChange
 0001:0002D9D4       TWinControl.WMTimeChange
 0001:0002D9E4       TWinControl.WMHScroll
 0001:0002DA04       TWinControl.WMVScroll
 0001:0002DA24       TWinControl.WMCompareItem
 0001:0002DA48       TWinControl.WMDeleteItem
 0001:0002DA6C       TWinControl.WMDrawItem
 0001:0002DA90       TWinControl.WMMeasureItem
 0001:0002DAB4       TWinControl.WMEraseBkgnd
 0001:0002DB00       TWinControl.WMWindowPosChanged
 0001:0002DBC0       TWinControl.WMWindowPosChanging
 0001:0002DC10       TWinControl.WMSize
 0001:0002DC44       TWinControl.WMMove
 0001:0002DC58       TWinControl.WMSetCursor
 0001:0002DD58       TWinControl.WMSetFocus
 0001:0002DD6C       TWinControl.WMKillFocus
 0001:0002DD80       TWinControl.WMIMEStartComp
 0001:0002DD94       TWinControl.WMIMEEndComp
 0001:0002DDA8       TWinControl.SetIme
 0001:0002DE94       TWinControl.ResetIme
 0001:0002DF2C       TWinControl.DoAddDockClient
 0001:0002DF34       TWinControl.DoRemoveDockClient
 0001:0002DF38       TWinControl.DoEnter
 0001:0002DF58       TWinControl.DoExit
 0001:0002DF78       TWinControl.DockDrop
 0001:0002DFC8       TWinControl.DoDockOver
 0001:0002DFFC       TWinControl.DockOver
 0001:0002E03C       TWinControl.DoUnDock
 0001:0002E094       TWinControl.ReloadDockedControl
 0001:0002E0B8       TWinControl.GetDockClientCount
 0001:0002E0CC       TWinControl.GetDockClients
 0001:0002E0F0       TWinControl.GetSiteInfo
 0001:0002E14C       TWinControl.GetVisibleDockClientCount
 0001:0002E188       TWinControl.CreateDockManager
 0001:0002E1F4       TWinControl.SetDockSite
 0001:0002E2A8       TWinControl.CMDockClient
 0001:0002E398       TWinControl.CMUnDockClient
 0001:0002E3C0       TWinControl.CMFloat
 0001:0002E444       TWinControl.KeyDown
 0001:0002E46C       TWinControl.DoKeyDown
 0001:0002E4D4       TWinControl.WMKeyDown
 0001:0002E4F4       TWinControl.WMSysKeyDown
 0001:0002E514       TWinControl.KeyUp
 0001:0002E53C       TWinControl.DoKeyUp
 0001:0002E5A4       TWinControl.WMKeyUp
 0001:0002E5C4       TWinControl.WMSysKeyUp
 0001:0002E5E4       TWinControl.KeyPress
 0001:0002E604       TWinControl.DoKeyPress
 0001:0002E670       TWinControl.WMChar
 0001:0002E690       TWinControl.CMMouseWheel
 0001:0002E6EC       TWinControl.WMMouseWheel
 0001:0002E744       TWinControl.MouseWheelHandler
 0001:0002E788       TWinControl.DoMouseWheel
 0001:0002E84C       TWinControl.DoMouseWheelDown
 0001:0002E898       TWinControl.DoMouseWheelUp
 0001:0002E8E4       TraverseControls
 0001:0002E994       TWinControl.WMSysCommand
 0001:0002EA3C       TWinControl.WMCharToItem
 0001:0002EA5C       TWinControl.WMParentNotify
 0001:0002EA90       TWinControl.WMVKeyToItem
 0001:0002EAB0       TWinControl.WMDestroy
 0001:0002EAE4       TWinControl.WMNCDestroy
 0001:0002EB00       TWinControl.WMNCHitTest
 0001:0002EB24       TWinControl.PaletteChanged
 0001:0002EB88       TWinControl.WMQueryNewPalette
 0001:0002EBAC       TWinControl.WMPaletteChanged
 0001:0002EBCC       TWinControl.CMShowHintChanged
 0001:0002EBE4       TWinControl.CMBiDiModeChanged
 0001:0002EC1C       TWinControl.CMEnter
 0001:0002EC8C       TWinControl.CMExit
 0001:0002EC98       TWinControl.CMDesignHitTest
 0001:0002ECB8       TWinControl.CMChanged
 0001:0002ECCC       TWinControl.CMChildKey
 0001:0002ECE0       TWinControl.CMDialogKey
 0001:0002ECE8       TWinControl.CMDialogChar
 0001:0002ECF0       TWinControl.CMFocusChanged
 0001:0002ECF8       TWinControl.CMVisibleChanged
 0001:0002ED28       TWinControl.CMShowingChanged
 0001:0002ED50       TWinControl.CMEnabledChanged
 0001:0002ED98       TWinControl.CMColorChanged
 0001:0002EDC0       TWinControl.CMFontChanged
 0001:0002EDFC       TWinControl.CMCursorChanged
 0001:0002EE3C       TWinControl.CMBorderChanged
 0001:0002EE6C       TWinControl.CMCtl3DChanged
 0001:0002EEAC       TWinControl.CMParentCtl3DChanged
 0001:0002EEEC       TWinControl.CMSysColorChange
 0001:0002EEF4       TWinControl.CMWinIniChange
 0001:0002EEFC       TWinControl.CMFontChange
 0001:0002EF04       TWinControl.CMTimeChange
 0001:0002EF0C       TWinControl.CMDrag
 0001:0002EF68       TWinControl.CMControlListChange
 0001:0002EF7C       TWinControl.CMSysFontChanged
 0001:0002EF98       TWinControl.IsMenuKey
 0001:0002F02C       TWinControl.CNKeyDown
 0001:0002F104       TWinControl.CNKeyUp
 0001:0002F158       TWinControl.CNChar
 0001:0002F1A4       TWinControl.CNSysKeyDown
 0001:0002F200       TWinControl.CNSysChar
 0001:0002F234       TWinControl.SetBounds
 0001:0002F310       TWinControl.ScaleControls
 0001:0002F358       TWinControl.ChangeScale
 0001:0002F3B8       TWinControl.ScaleBy
 0001:0002F464       TWinControl.ScrollBy
 0001:0002F53C       TWinControl.ShowControl
 0001:0002F554       TWinControl.SetZOrderPosition
 0001:0002F62C       TWinControl.SetZOrder
 0001:0002F68C       TWinControl.GetDeviceContext
 0001:0002F6E0       TWinControl.Invalidate
 0001:0002F6F0       TWinControl.CMInvalidate
 0001:0002F740       TWinControl.Update
 0001:0002F75C       TWinControl.Repaint
 0001:0002F774       TWinControl.InvalidateFrame
 0001:0002F7AC       TWinControl.CanFocus
 0001:0002F7EC       TWinControl.SetFocus
 0001:0002F824       TWinControl.Focused
 0001:0002F848       TWinControl.HandleNeeded
 0001:0002F86C       TWinControl.GetHandle
 0001:0002F880       TWinControl.GetControlExtents
 0001:0002F914       TWinControl.GetClientOrigin
 0001:0002F934       TWinControl.GetClientRect
 0001:0002F94C       TWinControl.AdjustSize
 0001:0002F98C       TWinControl.SetBorderWidth
 0001:0002F9AC       TWinControl.SetCtl3D
 0001:0002F9D0       TWinControl.IsCtl3DStored
 0001:0002F9DC       TWinControl.SetParentCtl3D
 0001:0002FA00       TWinControl.GetTabOrder
 0001:0002FA24       TWinControl.UpdateTabOrder
 0001:0002FA80       TWinControl.SetTabOrder
 0001:0002FA98       TWinControl.SetTabStop
 0001:0002FAF8       TWinControl.SetUseDockManager
 0001:0002FB68       TWinControl.HandleAllocated
 0001:0002FB74       TWinControl.UpdateBounds
 0001:0002FC2C       TWinControl.GetTabOrderList
 0001:0002FC84       TWinControl.FindNextControl
 0001:0002FD90       TWinControl.SelectNext
 0001:0002FDBC       TWinControl.GetChildren
 0001:0002FE04       TWinControl.SetChildOrder
 0001:0002FE44       TWinControl.CanResize
 0001:0002FE4C       DoCalcConstraints
 0001:0002FECC       TWinControl.CalcConstraints
 0001:000302A8       TWinControl.ConstrainedResize
 0001:000302E4       TWinControl.ActionChange
 0001:00030324       TWinControl.GetActionLinkClass
 0001:0003032C       TWinControl.IsHelpContextStored
 0001:0003034C       TWinControl.AssignTo
 0001:0003037C       TWinControl.CanAutoSize
 0001:00030540       TWinControl.WMNCCalcSize
 0001:000305D0       TWinControl.WMNCPaint
 0001:00030858       TWinControl.WMContextMenu
 0001:000308C4       TGraphicControl.Create
 0001:00030920       TGraphicControl.Destroy
 0001:00030960       TGraphicControl.WMPaint
 0001:00030A08       TGraphicControl.Paint
 0001:00030A0C       THintWindow.Create
 0001:00030A74       THintWindow.CreateParams
 0001:00030AB0       THintWindow.WMNCHitTest
 0001:00030AB8       THintWindow.WMNCPaint
 0001:00030B38       THintWindow.Paint
 0001:00030BD4       THintWindow.IsHintMsg
 0001:00030C38       THintWindow.ReleaseHandle
 0001:00030C40       THintWindow.CMTextChanged
 0001:00030CD8       THintWindow.ActivateHint
 0001:00030DF4       THintWindow.ActivateHintData
 0001:00030E20       THintWindow.CalcHintRect
 0001:00030E7C       ClientToWindow
 0001:00030EBC       TDragImageList.Initialize
 0001:00030ED4       TDragImageList.CombineDragCursor
 0001:00030FA0       TDragImageList.SetDragImage
 0001:00030FE8       TDragImageList.SetDragCursor
 0001:00031000       TDragImageList.GetHotSpot
 0001:0003102C       TDragImageList.BeginDrag
 0001:0003108C       TDragImageList.DragLock
 0001:000310F0       TDragImageList.DragUnlock
 0001:00031114       TDragImageList.DragMove
 0001:00031158       TDragImageList.ShowDragImage
 0001:00031170       TDragImageList.HideDragImage
 0001:00031188       TDragImageList.EndDrag
 0001:000311D0       TCustomControl.Create
 0001:0003122C       TCustomControl.Destroy
 0001:0003125C       TCustomControl.WMPaint
 0001:0003127C       TCustomControl.PaintWindow
 0001:00031328       TCustomControl.Paint
 0001:0003132C       TDockZone.Create
 0001:00031350       TDockZone.GetChildCount
 0001:00031364       TDockZone.GetLimitBegin
 0001:000313AC       TDockZone.GetLimitSize
 0001:000313F4       TDockZone.GetTopLeft
 0001:00031460       TDockZone.GetHeightWidth
 0001:00031508       TDockZone.ResetChildren
 0001:00031598       TDockZone.GetControlName
 0001:000315DC       TDockZone.SetControlName
 0001:00031660       ParentNotLast
 0001:00031688       TDockZone.Update
 0001:000317D8       TDockTree.Create
 0001:00031940       TDockTree.Destroy
 0001:0003198C       TDockTree.AdjustDockRect
 0001:000319A0       TDockTree.BeginUpdate
 0001:000319A4       TDockTree.EndUpdate
 0001:000319B8       DoFindControlZone
 0001:00031A10       TDockTree.FindControlZone
 0001:00031A3C       DoForEach
 0001:00031A78       TDockTree.ForEachAt
 0001:00031A90       TDockTree.GetControlBounds
 0001:00031B04       TDockTree.HitTest
 0001:00031B14       TDockTree.InsertControl
 0001:00031D24       TDockTree.InsertNewParent
 0001:00031EAC       TDockTree.InsertSibling
 0001:00031F1C       DoFindZone
 0001:00032124       FindControlAtPos
 0001:000321B8       TDockTree.InternalHitTest
 0001:00032244       ReadControlName
 0001:0003228C       TDockTree.LoadFromStream
 0001:00032494       DrawCloseButton
 0001:000324EC       DrawGrabberLine
 0001:00032574       TDockTree.PaintDockFrame
 0001:00032650       TDockTree.PaintSite
 0001:000327B4       TDockTree.PositionDockRect
 0001:00032930       DoPrune
 0001:00032964       TDockTree.PruneZone
 0001:000329C0       TDockTree.RemoveControl
 0001:000329FC       TDockTree.RemoveZone
 0001:00032C60       TDockTree.ResetBounds
 0001:00032D3C       TDockTree.ScaleZone
 0001:00032D68       WriteControlName
 0001:00032DE0       DoSaveZone
 0001:00032E9C       TDockTree.SaveToStream
 0001:00032FE4       DoSetNewBounds
 0001:0003304C       TDockTree.SetNewBounds
 0001:00033078       TDockTree.SetReplacingControl
 0001:00033090       TDockTree.ShiftZone
 0001:000330AC       TDockTree.SplitterMouseDown
 0001:0003310C       TDockTree.SplitterMouseUp
 0001:00033184       TDockTree.UpdateAll
 0001:000331AC       TDockTree.UpdateZone
 0001:000331BC       TDockTree.DrawSizeSplitter
 0001:000332A8       Min
 0001:000332B0       DoGetNextLimit
 0001:0003332C       TDockTree.GetNextLimit
 0001:00033370       GetDockAlign
 0001:000333EC       TDockTree.ControlVisibilityChanged
 0001:00033458       CalcSplitterPos
 0001:000334EC       TDockTree.WindowProc
 0001:000338CC       TMouse.Create
 0001:0003395C       TMouse.Destroy
 0001:0003398C       TMouse.GetCapture
 0001:00033994       TMouse.GetMouseData
 0001:000339B0       TMouse.GetNativeData
 0001:000339E0       TMouse.GetRegisteredData
 0001:00033A08       TMouse.SetCapture
 0001:00033A30       TMouse.SettingChanged
 0001:00033A94       InitIMM32
 0001:00033CFC       Win32NLSEnableIME
 0001:00033D18       SetImeMode
 0001:00033DF4       Imm32IsIME
 0001:00033E08       DoneControls
 0001:00033E7C       InitControls
 0001:00033F88       Finalization
 0001:00033FDC       Controls
 0001:000343A8       TContainedAction.Destroy
 0001:000343DC       TContainedAction.GetIndex
 0001:000343F4       TContainedAction.IsCategoryStored
 0001:000343F8       TContainedAction.GetParentComponent
 0001:00034408       TContainedAction.HasParent
 0001:00034418       TContainedAction.ReadState
 0001:0003444C       TContainedAction.SetIndex
 0001:00034494       TContainedAction.SetCategory
 0001:000344C0       TContainedAction.SetActionList
 0001:000344E8       TContainedAction.SetParentComponent
 0001:00034514       TContainedAction.Execute
 0001:0003456C       TContainedAction.Update
 0001:000345C4       TCustomActionList.Create
 0001:0003462C       TCustomActionList.Destroy
 0001:0003467C       TCustomActionList.GetChildren
 0001:000346C4       TCustomActionList.SetChildOrder
 0001:000346F4       TCustomActionList.SetImages
 0001:00034728       TCustomActionList.ImageListChange
 0001:00034734       TCustomActionList.Notification
 0001:0003477C       TCustomActionList.AddAction
 0001:0003479C       TCustomActionList.RemoveAction
 0001:000347B8       TCustomActionList.Change
 0001:00034820       TCustomActionList.IsShortCut
 0001:00034880       TCustomActionList.ExecuteAction
 0001:000348A0       TCustomActionList.UpdateAction
 0001:000348C0       TActionLink.IsCaptionLinked
 0001:000348D4       TActionLink.IsCheckedLinked
 0001:000348E8       TActionLink.IsEnabledLinked
 0001:000348FC       TActionLink.IsHelpContextLinked
 0001:00034910       TActionLink.IsHintLinked
 0001:00034924       TActionLink.IsImageIndexLinked
 0001:00034938       TActionLink.IsShortCutLinked
 0001:0003494C       TActionLink.IsVisibleLinked
 0001:00034960       TActionLink.SetCaption
 0001:00034964       TActionLink.SetChecked
 0001:00034968       TActionLink.SetEnabled
 0001:0003496C       TActionLink.SetHelpContext
 0001:00034970       TActionLink.SetHint
 0001:00034974       TActionLink.SetImageIndex
 0001:00034978       TActionLink.SetShortCut
 0001:0003497C       TActionLink.SetVisible
 0001:00034980       TCustomAction.Create
 0001:000349C8       TCustomAction.Destroy
 0001:00034A00       TCustomAction.AssignTo
 0001:00034A7C       TCustomAction.SetCaption
 0001:00034AE4       TCustomAction.SetChecked
 0001:00034B3C       TCustomAction.SetEnabled
 0001:00034B94       TCustomAction.SetHelpContext
 0001:00034BEC       TCustomAction.SetHint
 0001:00034C54       TCustomAction.SetImageIndex
 0001:00034CAC       TCustomAction.SetShortCut
 0001:00034D08       TCustomAction.SetVisible
 0001:00034D60       TCustomAction.SetName
 0001:00034DAC       TCustomAction.DoHint
 0001:00034DCC       TCustomAction.Execute
 0001:00034DF0       Finalization
 0001:00034E20       ActnList
 0001:00034FEC       GetRGBColor
 0001:0003500C       GetColor
 0001:0003502C       TCustomImageList.Create
 0001:00035078       TCustomImageList.CreateSize
 0001:000350CC       TCustomImageList.Destroy
 0001:00035138       TCustomImageList.Initialize
 0001:000351F0       TCustomImageList.HandleAllocated
 0001:000351F8       TCustomImageList.HandleNeeded
 0001:00035204       TCustomImageList.InitBitmap
 0001:000352C8       TCustomImageList.SetNewDimensions
 0001:00035300       TCustomImageList.SetWidth
 0001:00035344       TCustomImageList.SetHeight
 0001:00035388       TCustomImageList.SetHandle
 0001:000353B4       TCustomImageList.GetBitmapHandle
 0001:000353C4       TCustomImageList.GetHandle
 0001:000353D4       TCustomImageList.GetImageHandle
 0001:00035428       TCustomImageList.FreeHandle
 0001:0003545C       TCustomImageList.CreateImageList
 0001:000354F8       TCustomImageList.Add
 0001:000355C4       TCustomImageList.AddMasked
 0001:000356E0       TCustomImageList.GetCount
 0001:00035704       TCustomImageList.ReplaceMasked
 0001:0003592C       TCustomImageList.Delete
 0001:000359B8       TCustomImageList.Clear
 0001:000359C4       TCustomImageList.SetBkColor
 0001:000359FC       TCustomImageList.GetBkColor
 0001:00035A24       TCustomImageList.DoDraw
 0001:00035BFC       TCustomImageList.Draw
 0001:00035C48       TCustomImageList.CopyImages
 0001:00035DE0       TCustomImageList.AddImages
 0001:00035E00       TCustomImageList.Assign
 0001:00035EC0       TCustomImageList.AssignTo
 0001:00035F70       TCustomImageList.CheckImage
 0001:00035FE8       TCustomImageList.SetDrawingStyle
 0001:00036004       TCustomImageList.GetHotSpot
 0001:00036014       TCustomImageList.Change
 0001:00036064       TCustomImageList.UnRegisterChanges
 0001:000360A8       TCustomImageList.RegisterChanges
 0001:000360BC       StreamsEqual
 0001:000360FC       TCustomImageList.Equal
 0001:000361EC       DoWrite
 0001:00036248       TCustomImageList.DefineProperties
 0001:000362A0       TCustomImageList.ReadD2Stream
 0001:00036530       TCustomImageList.ReadD3Stream
 0001:000365B4       TCustomImageList.ReadData
 0001:0003663C       TCustomImageList.WriteData
 0001:000366B8       TCustomImageList.BeginUpdate
 0001:000366BC       TCustomImageList.EndUpdate
 0001:000366DC       TChangeLink.Destroy
 0001:00036710       TChangeLink.Change
 0001:00036728       Finalization
 0001:00036758       ImgList
 0001:000375F0       FindPopupControl
 0001:00037620       ReturnAddr
 0001:00037624       Error
 0001:00037644       ShortCut
 0001:0003767C       GetSpecialName
 0001:000376D0       ShortCutToText
 0001:000378D4       CompareFront
 0001:00037930       TextToShortCut
 0001:00037A28       UniqueCommand
 0001:00037A48       Iterate
 0001:00037AA8       IterateMenus
 0001:00037BB0       TMenuActionLink.AssignClient
 0001:00037BCC       TMenuActionLink.IsCaptionLinked
 0001:00037C04       TMenuActionLink.IsCheckedLinked
 0001:00037C34       TMenuActionLink.IsEnabledLinked
 0001:00037C64       TMenuActionLink.IsHelpContextLinked
 0001:00037C94       TMenuActionLink.IsHintLinked
 0001:00037CC8       TMenuActionLink.IsImageIndexLinked
 0001:00037CF8       TMenuActionLink.IsShortCutLinked
 0001:00037D2C       TMenuActionLink.IsVisibleLinked
 0001:00037D5C       TMenuActionLink.IsOnExecuteLinked
 0001:00037D84       TMenuActionLink.SetCaption
 0001:00037DA4       TMenuActionLink.SetChecked
 0001:00037DC4       TMenuActionLink.SetEnabled
 0001:00037DE4       TMenuActionLink.SetHelpContext
 0001:00037E00       TMenuActionLink.SetHint
 0001:00037E24       TMenuActionLink.SetImageIndex
 0001:00037E44       TMenuActionLink.SetShortCut
 0001:00037E64       TMenuActionLink.SetVisible
 0001:00037E84       TMenuActionLink.SetOnExecute
 0001:00037EB0       TMenuItem.Create
 0001:00037F2C       TMenuItem.Destroy
 0001:00037FE0       TMenuItem.AppendTo
 0001:00038264       AddIn
 0001:00038280       TMenuItem.PopulateMenu
 0001:000382F0       TMenuItem.ReadShortCutText
 0001:00038348       TMenuItem.MergeWith
 0001:0003836C       TMenuItem.Loaded
 0001:000383A8       TMenuItem.RebuildHandle
 0001:0003842C       TMenuItem.VerifyGroupIndex
 0001:0003848C       TMenuItem.GetHandle
 0001:000384D8       TMenuItem.DefineProperties
 0001:0003851C       TMenuItem.DoDrawText
 0001:00038730       TMenuItem.DrawItem
 0001:00038774       NormalDraw
 0001:00038FF4       BiDiDraw
 0001:0003989C       TMenuItem.AdvancedDrawItem
 0001:000399B4       TMenuItem.GetImageList
 0001:000399E4       GetMenuSize
 0001:00039A30       TMenuItem.MeasureItem
 0001:00039C30       TMenuItem.HasParent
 0001:00039C34       TMenuItem.SetBreak
 0001:00039C44       TMenuItem.SetCaption
 0001:00039C6C       TMenuItem.TurnSiblingsOff
 0001:00039CB4       TMenuItem.SetChecked
 0001:00039D08       TMenuItem.SetEnabled
 0001:00039D80       TMenuItem.SetGroupIndex
 0001:00039DC4       TMenuItem.GetAction
 0001:00039DD4       TMenuItem.GetActionLinkClass
 0001:00039DDC       TMenuItem.GetCount
 0001:00039DEC       TMenuItem.GetItem
 0001:00039E10       TMenuItem.SetShortCut
 0001:00039E24       TMenuItem.SetVisible
 0001:00039E34       TMenuItem.SetImageIndex
 0001:00039E44       TMenuItem.GetMenuIndex
 0001:00039E5C       TMenuItem.SetMenuIndex
 0001:00039EA4       TMenuItem.GetChildren
 0001:00039EDC       TMenuItem.SetChildOrder
 0001:00039EFC       TMenuItem.SetDefault
 0001:00039F58       TMenuItem.InitiateAction
 0001:00039F68       TMenuItem.Insert
 0001:0003A018       TMenuItem.Delete
 0001:0003A088       TMenuItem.Click
 0001:0003A0F8       TMenuItem.IndexOf
 0001:0003A110       TMenuItem.Add
 0001:0003A12C       TMenuItem.Remove
 0001:0003A154       TMenuItem.MenuChanged
 0001:0003A190       TMenuItem.SubItemChanged
 0001:0003A1E8       TMenuItem.GetBitmap
 0001:0003A210       TMenuItem.SetAction
 0001:0003A280       TMenuItem.SetBitmap
 0001:0003A2B4       TMenuItem.InitiateActions
 0001:0003A2E0       TMenuItem.GetParentComponent
 0001:0003A2F4       TMenuItem.SetParentComponent
 0001:0003A348       TMenuItem.GetParentMenu
 0001:0003A358       TMenuItem.SetRadioItem
 0001:0003A384       TMenuItem.ActionChange
 0001:0003A46C       TMenuItem.DoActionChange
 0001:0003A494       TMenuItem.IsCaptionStored
 0001:0003A4B4       TMenuItem.IsCheckedStored
 0001:0003A4D4       TMenuItem.IsEnabledStored
 0001:0003A4F4       TMenuItem.IsHintStored
 0001:0003A514       TMenuItem.IsHelpContextStored
 0001:0003A534       TMenuItem.IsImageIndexStored
 0001:0003A554       TMenuItem.IsShortCutStored
 0001:0003A574       TMenuItem.IsVisibleStored
 0001:0003A594       TMenuItem.IsOnClickStored
 0001:0003A5B4       TMenuItem.AssignTo
 0001:0003A62C       TMenuItem.Notification
 0001:0003A660       TMenuItem.SetSubMenuImages
 0001:0003A69C       TMenuItem.ImageListChange
 0001:0003A6A8       UpdateItem
 0001:0003A6D0       TMenuItem.UpdateItems
 0001:0003A6E4       IfHotkeyAvailable
 0001:0003A714       CopyToBest
 0001:0003A798       InsertHotkeyFarEastFormat
 0001:0003A8F8       TMenuItem.InternalRethinkHotkeys
 0001:0003AD94       TMenuItem.SetAutoHotkeys
 0001:0003ADA4       TMenuItem.IsLine
 0001:0003ADC8       TMenuItem.InternalRethinkLines
 0001:0003AF04       TMenuItem.SetAutoLineReduction
 0001:0003AF14       TMenuItem.GetAutoHotkeys
 0001:0003AF40       TMenuItem.GetAutoLineReduction
 0001:0003AF6C       TMenu.Create
 0001:0003B004       TMenu.Destroy
 0001:0003B03C       TMenu.GetChildren
 0001:0003B058       TMenu.GetHandle
 0001:0003B064       TMenu.SetChildOrder
 0001:0003B078       UpdateItem
 0001:0003B0A0       TMenu.UpdateItems
 0001:0003B0B8       Find
 0001:0003B150       TMenu.FindItem
 0001:0003B180       TMenu.GetHelpContext
 0001:0003B1F0       TMenu.DispatchCommand
 0001:0003B20C       TMenu.DispatchPopup
 0001:0003B280       TMenu.IsOwnerDraw
 0001:0003B294       NthParentOf
 0001:0003B2A4       DoClick
 0001:0003B3F8       TMenu.IsShortCut
 0001:0003B4B4       TMenu.IsBiDiModeStored
 0001:0003B4BC       TMenu.DoBiDiModeChanged
 0001:0003B578       BuildImage
 0001:0003B618       TMenu.UpdateImage
 0001:0003B69C       TMenu.SetOwnerDraw
 0001:0003B6AC       TMenu.AdjustBiDiBehavior
 0001:0003B728       TMenu.SetWindowHandle
 0001:0003B760       TMenu.DoChange
 0001:0003B778       TMenu.Loaded
 0001:0003B790       TMenu.MenuChanged
 0001:0003B7CC       TMenu.ImageListChange
 0001:0003B7D8       TMenu.SetImages
 0001:0003B814       TMenu.Notification
 0001:0003B840       TMenu.IsRightToLeft
 0001:0003B858       IsAccelChar
 0001:0003B8B4       IsInitialChar
 0001:0003B99C       TMenu.ProcessMenuChar
 0001:0003BB14       TMenu.DoGetMenuString
 0001:0003BBBC       TMenu.SetBiDiMode
 0001:0003BBD0       TMenu.SetParentBiDiMode
 0001:0003BBE0       TMenu.ParentBiDiModeChanged
 0001:0003BC08       TMenu.ParentBiDiModeChanged
 0001:0003BC34       TMenu.GetAutoHotkeys
 0001:0003BC44       TMenu.SetAutoHotkeys
 0001:0003BC54       TMenu.GetAutoLineReduction
 0001:0003BC64       TMenu.SetAutoLineReduction
 0001:0003BC74       TMainMenu.SetAutoMerge
 0001:0003BC94       TMainMenu.MenuChanged
 0001:0003BCEC       TMainMenu.Merge
 0001:0003BD08       TMainMenu.Unmerge
 0001:0003BD24       TMainMenu.ItemChanged
 0001:0003BD50       TMainMenu.GetHandle
 0001:0003BD60       TPopupList.MainWndProc
 0001:0003BDAC       TPopupList.WndProc
 0001:0003C2E8       TPopupList.Add
 0001:0003C310       TPopupList.Remove
 0001:0003C32C       TPopupMenu.Create
 0001:0003C3A0       TPopupMenu.Destroy
 0001:0003C3D4       TPopupMenu.DoPopup
 0001:0003C3E8       TPopupMenu.GetHelpContext
 0001:0003C3F0       TPopupMenu.SetHelpContext
 0001:0003C3F8       TPopupMenu.SetBiDiModeFromPopupControl
 0001:0003C440       TPopupMenu.UseRightToLeftAlignment
 0001:0003C48C       TPopupMenu.Popup
 0001:0003C540       TMenuItemStack.ClearItem
 0001:0003C57C       DrawMenuItem
 0001:0003C670       StripHotkey
 0001:0003C708       GetHotkey
 0001:0003C76C       AnsiSameCaption
 0001:0003C868       Finalization
 0001:0003C8D8       Menus
 0001:0003ECFC       ShowMDIClientEdge
 0001:0003ED48       DoneApplication
 0001:0003ED80       DoDisableWindow
 0001:0003EDD0       DisableTaskWindows
 0001:0003EE84       EnableTaskWindows
 0001:0003EEBC       DoFindWindow
 0001:0003EF20       FindTopMostWindow
 0001:0003EF5C       SendFocusMessage
 0001:0003EF7C       CheckTaskWindow
 0001:0003EF9C       ForegroundTask
 0001:0003EFC8       FindGlobalComponent
 0001:0003F048       InitCtl3D
 0001:0003F04C       StdWndProc
 0001:0003F06C       CalcJmpOffset
 0001:0003F074       MakeObjectInstance
 0001:0003F10C       FreeObjectInstance
 0001:0003F130       AllocateHWnd
 0001:0003F1E4       DeallocateHWnd
 0001:0003F20C       KeysToShiftState
 0001:0003F260       KeyDataToShiftState
 0001:0003F29C       KeyboardStateToShiftState
 0001:0003F2E8       IsAccel
 0001:0003F358       GetParentForm
 0001:0003F380       ValidParentForm
 0001:0003F400       TControlScrollBar.Create
 0001:0003F488       TControlScrollBar.IsIncrementStored
 0001:0003F490       TControlScrollBar.Assign
 0001:0003F4E0       TControlScrollBar.ChangeBiDiPosition
 0001:0003F518       ProcessHorz
 0001:0003F584       ProcessVert
 0001:0003F5EC       TControlScrollBar.CalcAutoRange
 0001:0003F698       TControlScrollBar.IsScrollBarVisible
 0001:0003F6D0       ScrollBarVisible
 0001:0003F704       Adjustment
 0001:0003F780       TControlScrollBar.ControlSize
 0001:0003F800       TControlScrollBar.NeedsScrollBarVisible
 0001:0003F818       GetRealScrollPosition
 0001:0003F878       TControlScrollBar.ScrollMessage
 0001:0003FB70       TControlScrollBar.SetButtonSize
 0001:0003FBB4       TControlScrollBar.SetColor
 0001:0003FBD0       TControlScrollBar.SetParentColor
 0001:0003FBE8       TControlScrollBar.SetPosition
 0001:0003FCAC       TControlScrollBar.SetSize
 0001:0003FCF0       TControlScrollBar.SetStyle
 0001:0003FD08       TControlScrollBar.SetThumbSize
 0001:0003FD20       TControlScrollBar.DoSetRange
 0001:0003FD38       TControlScrollBar.SetRange
 0001:0003FD4C       TControlScrollBar.IsRangeStored
 0001:0003FD58       TControlScrollBar.SetVisible
 0001:0003FD64       UpdateScrollProperties
 0001:0003FE6C       TControlScrollBar.Update
 0001:0003FF84       TScrollingWinControl.Create
 0001:0003FFEC       TScrollingWinControl.Destroy
 0001:00040028       TScrollingWinControl.CreateParams
 0001:00040038       TScrollingWinControl.CreateWnd
 0001:00040064       TScrollingWinControl.AlignControls
 0001:00040084       TScrollingWinControl.AutoScrollEnabled
 0001:000400A4       TScrollingWinControl.DoFlipChildren
 0001:000401BC       TScrollingWinControl.CalcAutoRange
 0001:000401E0       TScrollingWinControl.SetAutoScroll
 0001:0004021C       TScrollingWinControl.SetHorzScrollBar
 0001:0004022C       TScrollingWinControl.SetVertScrollBar
 0001:0004023C       TScrollingWinControl.UpdateScrollBars
 0001:00040334       TScrollingWinControl.AutoScrollInView
 0001:0004034C       TScrollingWinControl.ScrollInView
 0001:000404A0       TScrollingWinControl.ScaleScrollBars
 0001:00040544       TScrollingWinControl.ChangeScale
 0001:00040568       TScrollingWinControl.Resizing
 0001:0004056C       TScrollingWinControl.WMSize
 0001:00040648       TScrollingWinControl.WMHScroll
 0001:0004066C       TScrollingWinControl.WMVScroll
 0001:00040690       TScrollingWinControl.AdjustClientRect
 0001:00040704       TScrollingWinControl.CMBiDiModeChanged
 0001:00040794       TScrollBox.Create
 0001:000407F4       TScrollBox.CreateParams
 0001:00040844       TScrollBox.SetBorderStyle
 0001:00040858       TScrollBox.WMNCHitTest
 0001:00040860       TScrollBox.CMCtl3DChanged
 0001:0004088C       TCustomForm.Create
 0001:00040A18       TCustomForm.AfterConstruction
 0001:00040A50       TCustomForm.CreateNew
 0001:00040BB0       TCustomForm.BeforeDestruction
 0001:00040C18       TCustomForm.Destroy
 0001:00040CFC       TCustomForm.DoCreate
 0001:00040D70       TCustomForm.DoDestroy
 0001:00040DD0       TCustomForm.Loaded
 0001:00040E0C       TCustomForm.Notification
 0001:00040F18       TCustomForm.ReadState
 0001:00041128       TCustomForm.DefineProperties
 0001:000411D8       TCustomForm.ReadIgnoreFontProperty
 0001:000411F8       TCustomForm.ReadTextHeight
 0001:00041210       TCustomForm.WriteTextHeight
 0001:0004122C       TCustomForm.WritePixelsPerInch
 0001:00041248       TCustomForm.GetTextHeight
 0001:0004126C       TCustomForm.BeginAutoDrag
 0001:00041270       TCustomForm.ChangeScale
 0001:000412F0       TCustomForm.IconChanged
 0001:0004134C       TCustomForm.IsClientSizeStored
 0001:0004135C       TCustomForm.IsFormSizeStored
 0001:00041384       TCustomForm.IsAutoScrollStored
 0001:000413B8       TCustomForm.DoClose
 0001:000413D8       TCustomForm.DoHide
 0001:000413F8       TCustomForm.DoShow
 0001:00041418       TCustomForm.GetClientRect
 0001:000414A0       TCustomForm.GetChildren
 0001:0004150C       TCustomForm.GetFloating
 0001:00041538       TCustomForm.SetChildOrder
 0001:000415CC       TCustomForm.SetParentBiDiMode
 0001:000415F4       TCustomForm.SetClientWidth
 0001:00041624       TCustomForm.SetClientHeight
 0001:00041654       TCustomForm.SetVisible
 0001:00041698       TCustomForm.VisibleChanging
 0001:000416FC       TCustomForm.WantChildKey
 0001:00041700       TCustomForm.SetParent
 0001:00041738       TCustomForm.ValidateRename
 0001:00041778       TCustomForm.WndProc
 0001:00041B38       Default
 0001:00041B84       MaximizedChildren
 0001:00041BC4       TCustomForm.ClientWndProc
 0001:00041C8C       TCustomForm.AlignControls
 0001:00041CC8       TCustomForm.CMBiDiModeChanged
 0001:00041D60       TCustomForm.CMParentBiDiModeChanged
 0001:00041DE8       TCustomForm.SetBorderIcons
 0001:00041E14       TCustomForm.SetBorderStyle
 0001:00041E4C       TCustomForm.Dock
 0001:00041E94       TCustomForm.DoDock
 0001:00041EE8       TCustomForm.GetActiveMDIChild
 0001:00041F1C       TCustomForm.GetMDIChildCount
 0001:00041F68       TCustomForm.GetMDIChildren
 0001:00041FB8       TCustomForm.GetMonitor
 0001:00042018       TCustomForm.GetCanvas
 0001:00042020       TCustomForm.SetIcon
 0001:0004202C       TCustomForm.IsForm
 0001:00042034       TCustomForm.IsIconStored
 0001:0004205C       TCustomForm.SetFormStyle
 0001:000420DC       TCustomForm.RefreshMDIMenu
 0001:00042158       TCustomForm.SetObjectMenuItem
 0001:0004217C       TCustomForm.SetWindowMenu
 0001:000421A4       TCustomForm.SetMenu
 0001:00042368       TCustomForm.GetPixelsPerInch
 0001:0004237C       TCustomForm.SetPixelsPerInch
 0001:000423B0       TCustomForm.SetPosition
 0001:000423CC       TCustomForm.GetScaled
 0001:000423D8       TCustomForm.SetScaled
 0001:00042408       TCustomForm.CMColorChanged
 0001:0004242C       TCustomForm.NormalColor
 0001:00042444       TCustomForm.CMCtl3DChanged
 0001:0004248C       TCustomForm.CMFontChanged
 0001:000424AC       TCustomForm.CMMenuChanged
 0001:000424C8       TCustomForm.SetWindowState
 0001:00042508       TCustomForm.SetWindowToMonitor
 0001:00042854       TCustomForm.CreateParams
 0001:00042A68       TCustomForm.CreateWnd
 0001:00042BA8       TCustomForm.CreateWindowHandle
 0001:00042CA8       TCustomForm.DestroyWindowHandle
 0001:00042CEC       TCustomForm.DefaultHandler
 0001:00042D50       TCustomForm.SetActiveControl
 0001:00042E08       TCustomForm.DefocusControl
 0001:00042E50       TCustomForm.FocusControl
 0001:00042E74       TCustomForm.SetFocusedControl
 0001:00043104       TCustomForm.ActiveChanged
 0001:00043108       TCustomForm.SetWindowFocus
 0001:00043158       TCustomForm.SetActive
 0001:000431BC       TCustomForm.SendCancelMode
 0001:0004320C       TCustomForm.MergeMenu
 0001:000432B4       DoNestedActivation
 0001:00043300       TCustomForm.Activate
 0001:00043330       TCustomForm.Deactivate
 0001:00043360       TCustomForm.Paint
 0001:00043380       TCustomForm.GetIconHandle
 0001:0004339C       TCustomForm.PaintWindow
 0001:00043454       TCustomForm.PaletteChanged
 0001:00043500       TCustomForm.WMPaint
 0001:00043580       TCustomForm.WMIconEraseBkgnd
 0001:000435E0       TCustomForm.WMEraseBkgnd
 0001:00043618       TCustomForm.WMQueryDragIcon
 0001:0004362C       ModifySystemMenu
 0001:00043728       TCustomForm.WMNCCreate
 0001:0004375C       TCustomForm.WMNCLButtonDown
 0001:000437EC       TCustomForm.WMDestroy
 0001:0004384C       TCustomForm.WMCommand
 0001:00043880       TCustomForm.WMInitMenuPopup
 0001:00043898       TCustomForm.WMMenuChar
 0001:000438D0       TCustomForm.WMMenuSelect
 0001:00043978       TCustomForm.WMActivate
 0001:00043998       TCustomForm.Resizing
 0001:000439D0       TCustomForm.WMClose
 0001:000439D8       TCustomForm.WMQueryEndSession
 0001:00043A04       TCustomForm.CMAppSysCommand
 0001:00043A5C       TCustomForm.WMSysCommand
 0001:00043AE8       TCustomForm.WMShowWindow
 0001:00043B80       TCustomForm.WMMDIActivate
 0001:00043BD8       TCustomForm.WMNextDlgCtl
 0001:00043C04       TCustomForm.WMEnterMenuLoop
 0001:00043C20       GetMenuHelpContext
 0001:00043C60       TCustomForm.WMHelp
 0001:00043D64       TCustomForm.WMGetMinMaxInfo
 0001:00043DD8       TCustomForm.WMWindowPosChanging
 0001:00043E70       TCustomForm.CMActivate
 0001:00043E90       TCustomForm.CMDeactivate
 0001:00043EB0       TCustomForm.CMDialogKey
 0001:00043F4C       TCustomForm.CMShowingChanged
 0001:000444C8       TCustomForm.CMIconChanged
 0001:000444E8       TCustomForm.CMRelease
 0001:000444F0       TCustomForm.CMTextChanged
 0001:00044540       TCustomForm.CMUIActivate
 0001:00044548       TCustomForm.CMParentFontChanged
 0001:000445B4       TCustomForm.Close
 0001:00044658       TCustomForm.CloseQuery
 0001:000446BC       TCustomForm.CloseModal
 0001:00044764       TCustomForm.Hide
 0001:0004476C       TCustomForm.Show
 0001:00044784       TCustomForm.SetFocus
 0001:00044800       TCustomForm.Release
 0001:0004481C       TCustomForm.ShowModal
 0001:00044ABC       TraverseClients
 0001:00044B2C       TCustomForm.UpdateActions
 0001:00044B94       TCustomForm.RequestAlign
 0001:00044BB0       TCustomForm.WMSettingChange
 0001:00044BD4       ProcessExecute
 0001:00044C04       TraverseClients
 0001:00044C80       TCustomForm.CMActionExecute
 0001:00044CD4       ProcessUpdate
 0001:00044D04       TraverseClients
 0001:00044D80       TCustomForm.CMActionUpdate
 0001:00044DD4       DispatchShortCut
 0001:00044E28       TCustomForm.IsShortCut
 0001:00044EA4       TCustomForm.QueryInterface
 0001:00044F18       TCustomForm.MouseWheelHandler
 0001:00044F50       TCustomDockForm.Create
 0001:00044FB8       TCustomDockForm.DoAddDockClient
 0001:000450A0       TCustomDockForm.DoRemoveDockClient
 0001:000450C0       TCustomDockForm.Loaded
 0001:0004510C       TCustomDockForm.GetSiteInfo
 0001:00045138       TCustomDockForm.WMNCHitTest
 0001:00045160       TCustomDockForm.WMNCLButtonDown
 0001:000451F8       TCustomDockForm.CMControlListChange
 0001:00045250       TCustomDockForm.CMDockNotification
 0001:00045334       TCustomDockForm.CMUnDockClient
 0001:0004534C       TCustomDockForm.CMVisibleChanged
 0001:00045388       TMonitor.GetLeft
 0001:000453A8       TMonitor.GetHeight
 0001:000453CC       TMonitor.GetTop
 0001:000453EC       TMonitor.GetWidth
 0001:00045410       EnumMonitorsProc
 0001:00045440       TScreen.Create
 0001:00045568       TScreen.Destroy
 0001:00045610       TScreen.GetHeight
 0001:0004561C       TScreen.GetWidth
 0001:00045628       TScreen.GetDesktopTop
 0001:00045634       TScreen.GetDesktopLeft
 0001:00045640       TScreen.GetDesktopHeight
 0001:0004564C       TScreen.GetDesktopWidth
 0001:00045658       TScreen.GetMonitor
 0001:0004566C       TScreen.GetMonitorCount
 0001:00045688       TScreen.GetForm
 0001:0004569C       TScreen.GetFormCount
 0001:000456A4       TScreen.GetCustomForms
 0001:000456B8       TScreen.GetCustomFormCount
 0001:000456C0       TScreen.UpdateLastActive
 0001:0004570C       TScreen.AddForm
 0001:00045744       TScreen.RemoveForm
 0001:0004578C       TScreen.CreateCursors
 0001:000457E8       TScreen.DestroyCursors
 0001:00045844       TScreen.InsertCursor
 0001:0004586C       TScreen.GetImes
 0001:00045A6C       TScreen.GetDefaultIME
 0001:00045A88       TScreen.IconFontChanged
 0001:00045A98       TScreen.GetDataModule
 0001:00045AAC       TScreen.GetDataModuleCount
 0001:00045AB4       TScreen.GetCursors
 0001:00045ADC       TScreen.SetCursor
 0001:00045B6C       TScreen.GetMetricSettings
 0001:00045C20       TScreen.DisableAlign
 0001:00045C28       TScreen.EnableAlign
 0001:00045C48       TScreen.Realign
 0001:00045C50       InsertBefore
 0001:00045CB0       DoPosition
 0001:00045E60       DoAlign
 0001:00045FAC       AlignWork
 0001:00046004       TScreen.AlignForms
 0001:0004608C       TScreen.AlignForm
 0001:00046114       TScreen.ResetFonts
 0001:00046120       GetHint
 0001:00046150       GetHintControl
 0001:00046170       HintTimerProc
 0001:000461C4       HintMouseThread
 0001:00046220       HintGetMsgHook
 0001:00046264       HookHintHooks
 0001:000462D8       UnhookHintHooks
 0001:00046334       GetAnimation
 0001:00046364       SetAnimation
 0001:0004638C       ShowWinNoAnimate
 0001:000463CC       TApplication.Create
 0001:00046564       TApplication.Destroy
 0001:00046644       TApplication.CreateHandle
 0001:000467E4       TApplication.ControlDestroyed
 0001:00046844       GetTopMostWindows
 0001:000468B4       TApplication.DoNormalizeTopMosts
 0001:0004695C       TApplication.NormalizeTopMosts
 0001:00046964       TApplication.NormalizeAllTopMosts
 0001:0004696C       TApplication.RestoreTopMosts
 0001:000469D8       TApplication.UseRightToLeftReading
 0001:000469F0       TApplication.UseRightToLeftAlignment
 0001:00046A08       TApplication.CheckIniChange
 0001:00046A58       Default
 0001:00046A94       DrawAppIcon
 0001:00046AE0       TApplication.WndProc
 0001:0004717C       TApplication.GetIconHandle
 0001:00047198       TApplication.Minimize
 0001:00047238       TApplication.Restore
 0001:00047328       TApplication.BringToFront
 0001:00047364       TApplication.GetTitle
 0001:000473AC       TApplication.IsDlgMsg
 0001:000473D0       TApplication.IsMDIMsg
 0001:00047420       TApplication.IsKeyMsg
 0001:000474D8       TApplication.IsHintMsg
 0001:00047508       TApplication.IsShortCut
 0001:00047574       TApplication.ProcessMessage
 0001:0004760C       TApplication.ProcessMessages
 0001:00047624       TApplication.HandleMessage
 0001:00047648       TApplication.HookMainWindow
 0001:000476A4       TApplication.UnhookMainWindow
 0001:00047720       TApplication.Initialize
 0001:00047738       TApplication.CreateForm
 0001:000477B8       TApplication.Run
 0001:0004786C       TApplication.Terminate
 0001:00047880       TApplication.HandleException
 0001:00047910       TApplication.MessageBox
 0001:00047A68       TApplication.ShowException
 0001:00047B40       TApplication.InvokeHelp
 0001:00047C6C       TApplication.HelpContext
 0001:00047C78       TApplication.HelpCommand
 0001:00047C80       TApplication.SetShowHint
 0001:00047CC0       TApplication.DoActionIdle
 0001:00047D24       TApplication.DoMouseIdle
 0001:00047DA8       TApplication.Idle
 0001:00047EB4       TApplication.NotifyForms
 0001:00047EF0       TApplication.IconChanged
 0001:00047F54       TApplication.SetHint
 0001:00047FE8       SetVisible
 0001:00048044       TApplication.UpdateVisible
 0001:000480CC       TApplication.StartHintTimer
 0001:00048104       TApplication.StopHintTimer
 0001:00048124       TApplication.HintMouseMessage
 0001:00048230       TApplication.HintTimerExpired
 0001:00048264       TApplication.HideHint
 0001:000482A0       TApplication.CancelHint
 0001:000482C8       FindScanline
 0001:000482D8       GetCursorHeightMargin
 0001:0004842C       ValidateHintWindow
 0001:00048480       TApplication.ActivateHint
 0001:00048828       TApplication.DispatchAction
 0001:000488B8       TApplication.ExecuteAction
 0001:000488E0       TApplication.UpdateAction
 0001:00048918       Finalization
 0001:0004896C       Forms
 0001:0004898C       Finalization
 0001:000489BC       ShellAPI
 0001:000489C4       Finalization
 0001:000489F4       RegStr
 0001:000489FC       Finalization
 0001:00048A2C       WinInet
 0001:00048A34       Finalization
 0001:00048A64       UrlMon
 0001:00048A6C       Finalization
 0001:00048A9C       ShlObj
 0001:00048AA4       Finalization
 0001:00048AD4       CommDlg
 0001:00049A74       DoRect
 0001:00049B38       Frame3D
 0001:00049B98       TImage.Create
 0001:00049C2C       TImage.Destroy
 0001:00049C5C       TImage.GetPalette
 0001:00049C78       TImage.DestRect
 0001:00049D18       TImage.Paint
 0001:00049DD8       TImage.DoPaletteChange
 0001:00049E70       TImage.Progress
 0001:00049EDC       TImage.SetCenter
 0001:00049EF4       TImage.SetPicture
 0001:00049F04       TImage.SetStretch
 0001:00049F1C       TImage.SetTransparent
 0001:00049F34       TImage.PictureChanged
 0001:0004A04C       TImage.CanAutoSize
 0001:0004A0B4       TCustomPanel.Create
 0001:0004A14C       TCustomPanel.CreateParams
 0001:0004A1A0       TCustomPanel.CMBorderChanged
 0001:0004A1B4       TCustomPanel.CMTextChanged
 0001:0004A1BC       TCustomPanel.CMCtl3DChanged
 0001:0004A1E8       TCustomPanel.CMIsToolControl
 0001:0004A1FC       TCustomPanel.WMWindowPosChanged
 0001:0004A2FC       AdjustColors
 0001:0004A334       TCustomPanel.Paint
 0001:0004A498       TCustomPanel.SetAlignment
 0001:0004A4A4       TCustomPanel.SetBevelInner
 0001:0004A4C0       TCustomPanel.SetBevelOuter
 0001:0004A4DC       TCustomPanel.SetBevelWidth
 0001:0004A4F8       TCustomPanel.SetBorderWidth
 0001:0004A514       TCustomPanel.SetBorderStyle
 0001:0004A528       TCustomPanel.GetControlsAlignment
 0001:0004A530       TCustomPanel.AdjustClientRect
 0001:0004A588       TCustomPanel.CMDockClient
 0001:0004A6C0       TCustomPanel.CanAutoSize
 0001:0004A6EC       Finalization
 0001:0004A71C       ExtCtrls
 0001:0004A724       Finalization
 0001:0004A754       Dlgs
 0001:0004A800       InitGlobals
 0001:0004A954       Finalization
 0001:0004A9B0       Dialogs
 0001:0004A9CC       PCI_PCIcardCount
 0001:0004A9D4       PCI_DriverOpen
 0001:0004A9DC       PCI_IfkOnline
 0001:0004A9E4       PCI_IfkRead
 0001:0004A9EC       PCI_IfkWrite
 0001:0004A9F4       PCI_PCIcardReset
 0001:0004A9FC       PCI_FctCodeSnd
 0001:0004AA04       PCI_ErrorString
 0001:0004AA0C       PCI_MilBusWrite
 0001:0004AA14       PCI_DriverClose
 0001:0004AA1C       PCI_MilBusRead
 0001:0004AA24       IFKFound
 0001:0004AABC       Finalization
 0001:0004AAEC       UnitMil
 0001:0004B214       TGlyphList.CreateSize
 0001:0004B264       TGlyphList.Destroy
 0001:0004B294       TGlyphList.AllocateIndex
 0001:0004B2D4       TGlyphList.AddMasked
 0001:0004B300       TGlyphList.Delete
 0001:0004B328       TGlyphCache.Create
 0001:0004B36C       TGlyphCache.Destroy
 0001:0004B39C       TGlyphCache.GetList
 0001:0004B3FC       TGlyphCache.ReturnList
 0001:0004B41C       TGlyphCache.Empty
 0001:0004B428       TButtonGlyph.Create
 0001:0004B4BC       TButtonGlyph.Destroy
 0001:0004B518       TButtonGlyph.Invalidate
 0001:0004B560       TButtonGlyph.GlyphChanged
 0001:0004B590       TButtonGlyph.SetGlyph
 0001:0004B608       TButtonGlyph.SetNumGlyphs
 0001:0004B630       TButtonGlyph.CreateButtonGlyph
 0001:0004BC08       TButtonGlyph.DrawButtonGlyph
 0001:0004BCC4       TButtonGlyph.DrawButtonText
 0001:0004BDA8       TButtonGlyph.CalcButtonLayout
 0001:0004C0B8       TButtonGlyph.Draw
 0001:0004C128       TSpeedButton.Create
 0001:0004C1E4       TSpeedButton.Destroy
 0001:0004C21C       TSpeedButton.Paint
 0001:0004C464       TSpeedButton.UpdateTracking
 0001:0004C4C8       TSpeedButton.Loaded
 0001:0004C4F4       TSpeedButton.MouseDown
 0001:0004C54C       TSpeedButton.MouseMove
 0001:0004C5EC       TSpeedButton.MouseUp
 0001:0004C6D8       TSpeedButton.Click
 0001:0004C6E0       TSpeedButton.GetPalette
 0001:0004C6F4       TSpeedButton.GetGlyph
 0001:0004C700       TSpeedButton.SetGlyph
 0001:0004C718       TSpeedButton.GetNumGlyphs
 0001:0004C724       TSpeedButton.SetNumGlyphs
 0001:0004C750       TSpeedButton.GlyphChanged
 0001:0004C758       TSpeedButton.UpdateExclusive
 0001:0004C790       TSpeedButton.SetDown
 0001:0004C7FC       TSpeedButton.SetFlat
 0001:0004C810       TSpeedButton.SetGroupIndex
 0001:0004C824       TSpeedButton.SetLayout
 0001:0004C838       TSpeedButton.SetMargin
 0001:0004C854       TSpeedButton.SetSpacing
 0001:0004C868       TSpeedButton.SetTransparent
 0001:0004C8A4       TSpeedButton.SetAllowAllUp
 0001:0004C8B8       TSpeedButton.WMLButtonDblClk
 0001:0004C8DC       TSpeedButton.CMEnabledChanged
 0001:0004C90C       TSpeedButton.CMButtonPressed
 0001:0004C958       TSpeedButton.CMDialogChar
 0001:0004C9F0       TSpeedButton.CMFontChanged
 0001:0004C9F8       TSpeedButton.CMTextChanged
 0001:0004CA00       TSpeedButton.CMSysColorChange
 0001:0004CA24       TSpeedButton.CMMouseEnter
 0001:0004CA6C       TSpeedButton.CMMouseLeave
 0001:0004CAAC       CopyImage
 0001:0004CB3C       TSpeedButton.ActionChange
 0001:0004CBB4       DestroyLocals
 0001:0004CC4C       Finalization
 0001:0004CC84       Buttons
 0001:0004CE84       TForm6.Button1Click
 0001:0004CE90       Finalization
 0001:0004CEC0       Unit6
 0001:0004D14C       TForm5.Button1Click
 0001:0004D158       TForm5.FormCreate
 0001:0004D15C       TForm5.Button2Click
 0001:0004D270       TForm5.Button3Click
 0001:0004D2B0       TForm5.Button4Click
 0001:0004D2F0       TForm5.Button5Click
 0001:0004D38C       TForm5.Button6Click
 0001:0004D3F4       Finalization
 0001:0004D424       Unit5
 0001:0004D678       TForm4.Button1Click
 0001:0004D684       TForm4.FormCreate
 0001:0004D710       TForm4.Edit1KeyPress
 0001:0004D734       TForm4.Edit1KeyUp
 0001:0004D858       TForm4.Edit2KeyPress
 0001:0004D87C       TForm4.Edit2KeyUp
 0001:0004D9A0       TForm4.Button2Click
 0001:0004DA08       Finalization
 0001:0004DA38       Unit4
 0001:0004DC7C       TForm3.Button1Click
 0001:0004DC88       TForm3.FormCreate
 0001:0004DD48       TForm3.Button2Click
 0001:0004DEE0       TForm3.ComboBox1Change
 0001:0004DFDC       Finalization
 0001:0004E00C       Unit3
 0001:0004E49C       echo_durchlauf
 0001:0004E804       echo_dauerlauf
 0001:0004E854       TForm2.IFKAuswhlen1Click
 0001:0004E87C       TForm2.ReadWriteFCTCodesndern1Click
 0001:0004E8A4       TForm2.SingelStep1Click
 0001:0004E8CC       TForm2.Beenden1Click
 0001:0004E8E4       TForm2.FormCreate
 0001:0004EA24       TForm2.Info1Click
 0001:0004EA4C       TForm2.Button4Click
 0001:0004EA78       TForm2.FormClose
 0001:0004EAA8       TForm2.Button3Click
 0001:0004EAC4       TForm2.SpeedButton1Click
 0001:0004EACC       TForm2.Button1Click
 0001:0004EAE0       TForm2.Button2Click
 0001:0004EB84       TForm2.Edit1KeyPress
 0001:0004EBA4       TForm2.Edit1KeyUp
 0001:0004ECAC       Finalization
 0001:0004ECDC       Unit2
 0001:0004EE64       TForm1.FormCreate
 0001:0004F230       Finalization
 0001:0004F260       Unit1
 0001:0004F268       Finalization
 0001:0004F400       Project1
 0002:00000000       Default8087CW
 0002:00000004       HeapAllocFlags
 0002:00000008       DebugHook
 0002:0000000C       JITEnable
 0002:00000010       NoErrMsg
 0002:00000014       LibModuleList
 0002:00000018       ModuleUnloadList
 0002:0000001C       MemoryManager
 0002:00000028       runErrMsg
 0002:00000048       errCaption
 0002:00000050       dig
 0002:00000060       .
 0002:000000A4       Module
 0002:000000BC       EmptyStr
 0002:000000C0       Win32Platform
 0002:000000C4       Win32MajorVersion
 0002:000000C8       Win32MinorVersion
 0002:000000CC       Win32BuildNumber
 0002:000000D0       Win32CSDVersion
 0002:000000D4       MonthDays
 0002:00000104       LeadBytes
 0002:00000124       HexDisplayPrefix
 0002:00000128       GetDiskFreeSpaceEx
 0002:0000012C       ExitProcList
 0002:00000130       AccessMode
 0002:0000013C       ShareMode
 0002:00000150       FormatErrorStrs
 0002:00000158       FMSecsPerDay
 0002:0000015C       IMSecsPerDay
 0002:00000160       Format
 0002:00000164       DefShortMonthNames
 0002:00000194       DefLongMonthNames
 0002:000001C4       DefShortDayNames
 0002:000001E0       DefLongDayNames
 0002:000001FC       ErrorMap
 0002:00000234       ExceptMap
 0002:000002E4       TerminateProcList
 0002:000002E8       BooleanIdents
 0002:000002F0       DotSep
 0002:000002F4       C10000
 0002:000002F8       FilerSignature
 0002:000002FC       NilMethod
 0002:00000304       ValTtoVarT
 0002:00000354       DefFontData
 0002:00000380       DDBsOnly
 0002:00000384       Colors
 0002:000004D4       FontCharsets
 0002:00000564       DefPenData
 0002:00000574       PenStyles
 0002:00000584       DefBrushData
 0002:00000594       PenModes
 0002:000005B4       ClipboardFormats
 0002:000005B8       FileFormats
 0002:000005BC       BitmapCanvasList
 0002:000005C0       DIBPalSizes
 0002:000005C4       PalSize
 0002:000005C8       Pal16
 0002:00000608       FPrinter
 0002:0000060C       BorderStyles
 0002:00000614       Alignments
 0002:0000061C       WordWraps
 0002:00000620       WordWraps
 0002:00000624       Passwords
 0002:0000062C       ReadOnlys
 0002:00000634       CharCases
 0002:00000640       HideSelections
 0002:00000648       OEMConverts
 0002:00000650       ComboBoxStyles
 0002:00000664       CharCases
 0002:00000670       Sorts
 0002:00000678       ButtonStyles
 0002:00000680       Alignments
 0002:00000690       Alignments
 0002:000006A0       Styles
 0002:000006AC       Sorteds
 0002:000006B4       MultiSelects
 0002:000006BC       ExtendSelects
 0002:000006C4       IntegralHeights
 0002:000006CC       MultiColumns
 0002:000006D4       TabStops
 0002:000006DC       CSHREDRAW
 0002:000006E4       CreationControl
 0002:000006E8       DefaultDockTreeClass
 0002:000006EC       AnchorAlign
 0002:000006F4       Cursors
 0002:000007A4       CaptureControl
 0002:000007A8       ShowFlags
 0002:000007AC       WindowPos
 0002:000007B0       InnerStyles
 0002:000007C0       OuterStyles
 0002:000007D0       EdgeStyles
 0002:000007E0       Ctl3DStyles
 0002:000007E8       OrientArray
 0002:000007F0       MakeLast
 0002:000007F8       TreeStreamEndFlag
 0002:000007FC       SizeCursors
 0002:00000804       IMM32DLL
 0002:00000808       ModeMap
 0002:00000810       Mask
 0002:00000818       DrawingStyles
 0002:00000828       Images
 0002:00000830       ValidMenuHotkeys
 0002:00000834       cMenuAutoFlagToItem
 0002:00000838       cItemAutoFlagToMenu
 0002:0000083C       cBooleanToItemAutoFlag
 0002:00000840       cItemAutoFlagToBoolean
 0002:00000844       MenuKeyCaps
 0002:0000088C       Checks
 0002:00000894       Enables
 0002:0000089C       Breaks
 0002:000008A8       Separators
 0002:000008B0       IBreaks
 0002:000008BC       IChecks
 0002:000008C4       IDefaults
 0002:000008CC       IEnables
 0002:000008D4       IRadios
 0002:000008DC       ISeparators
 0002:000008E4       IRTL
 0002:000008EC       IOwnerDraw
 0002:000008F4       Alignments
 0002:000008FC       EdgeStyle
 0002:00000904       Alignments
 0002:0000090C       Flags
 0002:00000918       Buttons
 0002:0000091C       HintWindowClass
 0002:00000920       FocusMessages
 0002:00000924       FocusCount
 0002:00000928       TaskActiveWindow
 0002:0000092C       TaskFirstWindow
 0002:00000930       TaskFirstTopMost
 0002:00000934       TaskWindowList
 0002:00000938       BlockCode
 0002:0000093C       UtilWindowClass
 0002:00000964       SysConsts
 0002:0000096C       SysConsts
 0002:00000974       Props
 0002:0000099C       Styles
 0002:000009A8       BorderStyles
 0002:000009B0       ShowCommands
 0002:000009BC       ShowCommands
 0002:000009C8       ShowCommands
 0002:000009D4       CursorMap
 0002:00000A28       WindowClass
 0002:00000A50       AppVisible
 0002:00000A54       ShowFlags
 0002:00000A58       BorderStyles
 0002:00000A60       Alignments
 0002:00000A6C       WndProcPtrAtom
 0002:00000A70       Captions
 0002:00000A84       ButtonNames
 0002:00000AB0       ButtonCaptions
 0002:00000ADC       BitBtnCaptions
 0002:00000B08       GlyphCache
 0002:00000B0C       ButtonCount
 0002:00000B10       DownStyles
 0002:00000B18       FillStyles
 0002:00000B20       NewState
 0002:00001000       ExceptProc
 0002:00001004       ErrorProc
 0002:00001008       ExceptClsProc
 0002:0000100C       ExceptObjProc
 0002:00001010       ExceptionClass
 0002:00001014       AssertErrorProc
 0002:00001018       AbstractErrorProc
 0002:0000101C       MainInstance
 0002:00001020       MainThreadID
 0002:00001024       IsLibrary
 0002:00001028       CmdShow
 0002:0000102C       CmdLine
 0002:00001030       InitProc
 0002:00001034       ExitCode
 0002:00001038       ExitProc
 0002:0000103C       ErrorAddr
 0002:00001040       RandSeed
 0002:00001044       IsConsole
 0002:00001045       IsMultiThread
 0002:00001046       FileMode
 0002:00001047       Test8086
 0002:00001048       Test8087
 0002:0000104C       Input
 0002:00001218       Output
 0002:000013E4       ClearAnyProc
 0002:000013E8       ChangeAnyProc
 0002:000013EC       RefAnyProc
 0002:000013F0       Unassigned
 0002:00001400       Null
 0002:00001410       EmptyParam
 0002:00001420       AllocMemCount
 0002:00001424       AllocMemSize
 0002:00001428       .3
 0002:0000142C       initialized
 0002:00001430       heapErrorCode
 0002:00001434       heapLock
 0002:0000144C       blockDescBlockList
 0002:00001450       blockDescFreeList
 0002:00001454       spaceRoot
 0002:00001464       decommittedRoot
 0002:00001474       avail
 0002:00001480       rover
 0002:00001484       remBytes
 0002:00001488       curAlloc
 0002:0000148C       smallTab
 0002:00001490       committedRoot
 0002:000014A0       InitContext
 0002:000014CC       ModuleIsLib
 0002:000014CD       ModuleIsCpp
 0002:000014D0       TlsIndex
 0002:000014D8       HInstance
 0002:000014DC       .1
 0002:000014E0       TlsBuffer
 0002:000014E4       .3
 0002:000014E8       .1
 0002:000014EC       .1
 0002:000014F0       CurrencyString
 0002:000014F4       CurrencyFormat
 0002:000014F5       NegCurrFormat
 0002:000014F6       ThousandSeparator
 0002:000014F7       DecimalSeparator
 0002:000014F8       CurrencyDecimals
 0002:000014F9       DateSeparator
 0002:000014FC       ShortDateFormat
 0002:00001500       LongDateFormat
 0002:00001504       TimeSeparator
 0002:00001508       TimeAMString
 0002:0000150C       TimePMString
 0002:00001510       ShortTimeFormat
 0002:00001514       LongTimeFormat
 0002:00001518       ShortMonthNames
 0002:00001548       LongMonthNames
 0002:00001578       ShortDayNames
 0002:00001594       LongDayNames
 0002:000015B0       SysLocale
 0002:000015BC       EraNames
 0002:000015D8       EraYearOffsets
 0002:000015F4       ListSeparator
 0002:000015F8       .44
 0002:000015FC       OutOfMemory
 0002:00001600       InvalidPointer
 0002:00001604       FLanguages
 0002:00001608       .3
 0002:0000160C       .1
 0002:00001610       .5
 0002:00001614       GlobalNameSpace
 0002:00001618       FindGlobalComponent
 0002:0000161C       .84
 0002:00001620       ClassList
 0002:00001624       ClassAliasList
 0002:00001628       IntConstList
 0002:0000162C       GlobalFixupList
 0002:00001630       ThreadLock
 0002:00001648       ThreadWindow
 0002:0000164C       SystemPalette16
 0002:00001650       .81
 0002:00001654       ScreenLogPixels
 0002:00001658       StockPen
 0002:0000165C       StockBrush
 0002:00001660       StockFont
 0002:00001664       StockIcon
 0002:00001668       BitmapImageLock
 0002:00001680       CounterLock
 0002:00001698       FontManager
 0002:0000169C       PenManager
 0002:000016A0       BrushManager
 0002:000016A4       CanvasList
 0002:000016A8       PatternManager
 0002:000016AC       .9
 0002:000016B0       .1
 0002:000016B4       GetSystemMetrics
 0002:000016B8       MonitorFromWindow
 0002:000016BC       MonitorFromRect
 0002:000016C0       MonitorFromPoint
 0002:000016C4       GetMonitorInfoA
 0002:000016C8       GetMonitorInfoW
 0002:000016CC       GetMonitorInfo
 0002:000016D0       EnumDisplayMonitors
 0002:000016D4       .1
 0002:000016D8       User32Dll
 0002:000016DC       InitApis
 0002:000016E4       MMAvailable
 0002:000016E8       .1
 0002:000016EC       .2
 0002:000016F0       .3
 0002:000016F4       .3
 0002:000016F8       FlatSB_EnableScrollBar
 0002:000016FC       FlatSB_ShowScrollBar
 0002:00001700       FlatSB_GetScrollRange
 0002:00001704       FlatSB_GetScrollInfo
 0002:00001708       FlatSB_GetScrollPos
 0002:0000170C       FlatSB_SetScrollPos
 0002:00001710       FlatSB_SetScrollInfo
 0002:00001714       FlatSB_SetScrollRange
 0002:00001718       .1
 0002:0000171C       _FlatSB_GetScrollProp
 0002:00001720       _FlatSB_SetScrollProp
 0002:00001724       _InitializeFlatSB
 0002:00001728       _UninitializeFlatSB
 0002:0000172C       .22
 0002:00001730       CF_PICTURE
 0002:00001732       CF_COMPONENT
 0002:00001734       .2
 0002:00001738       FClipboard
 0002:0000173C       .02
 0002:00001740       Mouse
 0002:00001744       NewStyleControls
 0002:00001748       .22
 0002:0000174C       WindowAtom
 0002:0000174E       ControlAtom
 0002:00001750       DragControl
 0002:00001754       DragObject
 0002:00001758       DragFreeObject
 0002:0000175C       DragCapture
 0002:00001760       DragStartPos
 0002:00001768       DragSaveCursor
 0002:0000176C       DragThreshold
 0002:00001770       ActiveDrag
 0002:00001774       DragImageList
 0002:00001778       DockSiteList
 0002:0000177C       QualifyingSites
 0002:00001780       CanvasList
 0002:00001784       _WINNLSEnableIME
 0002:00001788       _ImmGetContext
 0002:0000178C       _ImmReleaseContext
 0002:00001790       _ImmGetConversionStatus
 0002:00001794       _ImmSetConversionStatus
 0002:00001798       _ImmSetOpenStatus
 0002:0000179C       _ImmSetCompositionWindow
 0002:000017A0       _ImmSetCompositionFont
 0002:000017A4       _ImmGetCompositionString
 0002:000017A8       _ImmIsIME
 0002:000017AC       _ImmNotifyIME
 0002:000017B0       .7
 0002:000017B4       .3
 0002:000017B8       PopupList
 0002:000017BC       ShortCutItems
 0002:000017C0       .9
 0002:000017C4       CommandPool
 0002:000017C8       Application
 0002:000017CC       Screen
 0002:000017D0       .51
 0002:000017D4       InstBlockList
 0002:000017D8       InstFreeList
 0002:000017DC       HintThreadID
 0002:000017E0       HintDoneEvent
 0002:000017E4       HintHook
 0002:000017E8       HintThread
 0002:000017EC       .1
 0002:000017F0       .1
 0002:000017F4       .1
 0002:000017F8       .1
 0002:000017FC       .1
 0002:00001800       .1
 0002:00001804       .61
 0002:00001808       .1
 0002:0000180C       .01
 0002:00001810       HelpMsg
 0002:00001814       FindMsg
 0002:00001818       Cardauswahl
 0002:0000181C       .1
 0002:00001820       .3
 0002:00001824       BitBtnGlyphs
 0002:00001850       Form6
 0002:00001854       .2
 0002:00001858       Form5
 0002:0000185C       .2
 0002:00001860       Form4
 0002:00001864       .2
 0002:00001868       Form3
 0002:0000186C       .2
 0002:00001870       Form2
 0002:00001874       WriteMilBusTimeOutC
 0002:00001878       ReadMilBusTimeOutC
 0002:0000187C       VerifyFailtC
 0002:00001880       FID
 0002:00001884       LoopCounter
 0002:00001888       SendCounter
 0002:0000188C       IFKAdress
 0002:00001890       SendData
 0002:00001894       FktRead
 0002:00001895       FktWrite
 0002:00001898       IFKOnline
 0002:0000189C       IFKCount
 0002:000018A0       IFKOnlineIndex
 0002:000018A4       .2
 0002:000018A8       Form1
 0002:000018AC       .2


Line numbers for SysConst(sysconst.pas) segment .text

   121 0001:00005D24   121 0001:00005D2B

Line numbers for Consts(Consts.pas) segment .text

   351 0001:0000B398   351 0001:0000B39F

Line numbers for UnitMil(UnitMil.pas) segment .text

   131 0001:0004A9CC   133 0001:0004A9D4   137 0001:0004A9DC   142 0001:0004A9E4
   147 0001:0004A9EC   150 0001:0004A9F4   155 0001:0004A9FC   158 0001:0004AA04
   174 0001:0004AA0C   177 0001:0004AA14   234 0001:0004AA1C   309 0001:0004AA24
   310 0001:0004AA44   311 0001:0004AA49   312 0001:0004AA50   317 0001:0004AA55
   318 0001:0004AA6C   319 0001:0004AA70   320 0001:0004AA75   326 0001:0004AA91
   315 0001:0004AA92   328 0001:0004AAB7   347 0001:0004AAEC   347 0001:0004AAF3

Line numbers for Unit6(Unit6.pas) segment .text

    34 0001:0004CE84    35 0001:0004CE8E    37 0001:0004CEC0    37 0001:0004CEC7

Line numbers for Unit5(Unit5.pas) segment .text

    44 0001:0004D14C    45 0001:0004D156    65 0001:0004D158    73 0001:0004D15C
    74 0001:0004D17B    75 0001:0004D180    78 0001:0004D186    80 0001:0004D19A
    81 0001:0004D1A8    83 0001:0004D1E6    86 0001:0004D1FE    87 0001:0004D23C
    94 0001:0004D270    95 0001:0004D271    98 0001:0004D276   100 0001:0004D28A
   101 0001:0004D2AB   108 0001:0004D2B0   109 0001:0004D2B1   112 0001:0004D2B6
   114 0001:0004D2CA   115 0001:0004D2EB   124 0001:0004D2F0   125 0001:0004D309
   126 0001:0004D30F   129 0001:0004D314   131 0001:0004D328   132 0001:0004D344
   133 0001:0004D385   138 0001:0004D38C   140 0001:0004D38D   142 0001:0004D3A1
   143 0001:0004D3B5   144 0001:0004D3C9   145 0001:0004D3DD   146 0001:0004D3F1
   148 0001:0004D424   148 0001:0004D42B

Line numbers for Unit4(Unit4.pas) segment .text

    42 0001:0004D678    43 0001:0004D682    50 0001:0004D684    65 0001:0004D699
    66 0001:0004D6C1    67 0001:0004D70B    72 0001:0004D710    74 0001:0004D713
    77 0001:0004D727    78 0001:0004D72C    80 0001:0004D72F    84 0001:0004D734
    85 0001:0004D74E    86 0001:0004D767    87 0001:0004D775    89 0001:0004D7B7
    90 0001:0004D7CB    93 0001:0004D810    97 0001:0004D858    99 0001:0004D85B
   102 0001:0004D86F   103 0001:0004D874   105 0001:0004D877   109 0001:0004D87C
   110 0001:0004D896   111 0001:0004D8AF   112 0001:0004D8BD   114 0001:0004D8FF
   115 0001:0004D913   118 0001:0004D958   124 0001:0004D9A0   127 0001:0004D9B4
   128 0001:0004D9C9   129 0001:0004D9DE   130 0001:0004D9E6   131 0001:0004D9EE
   133 0001:0004DA38   133 0001:0004DA3F

Line numbers for Unit3(Unit3.pas) segment .text

    39 0001:0004DC7C    40 0001:0004DC86    46 0001:0004DC88    61 0001:0004DCA1
    62 0001:0004DCC0    63 0001:0004DCD3    65 0001:0004DCE8    66 0001:0004DCFB
    67 0001:0004DD10    68 0001:0004DD42    73 0001:0004DD48    75 0001:0004DD67
    78 0001:0004DD7B    81 0001:0004DD87    83 0001:0004DD97    84 0001:0004DDAA
    85 0001:0004DDBF    87 0001:0004DDDE    88 0001:0004DDF1    89 0001:0004DE06
    90 0001:0004DE15    93 0001:0004DE1E    94 0001:0004DE2C    96 0001:0004DE6B
    98 0001:0004DEAD   102 0001:0004DEE0   103 0001:0004DEF8   104 0001:0004DF0C
   106 0001:0004DF24   107 0001:0004DF32   109 0001:0004DF74   111 0001:0004DFB1
   113 0001:0004E00C   113 0001:0004E013

Line numbers for Unit2(Unit2.pas) segment .text

    97 0001:0004E49C    98 0001:0004E4BD    99 0001:0004E4C2   100 0001:0004E4C8
   103 0001:0004E4CB   104 0001:0004E4E2   106 0001:0004E4FA   110 0001:0004E501
   111 0001:0004E522   112 0001:0004E529   113 0001:0004E54D   116 0001:0004E553
   117 0001:0004E559   118 0001:0004E55F   119 0001:0004E59C   123 0001:0004E59F
   124 0001:0004E5A5   128 0001:0004E5E2   129 0001:0004E5E8   130 0001:0004E5EE
   131 0001:0004E62B   132 0001:0004E630   134 0001:0004E636   135 0001:0004E6A4
   136 0001:0004E6AA   140 0001:0004E6AD   143 0001:0004E6B3   145 0001:0004E6E1
   146 0001:0004E701   147 0001:0004E721   148 0001:0004E741   149 0001:0004E761
   150 0001:0004E76E   152 0001:0004E79C   158 0001:0004E804   160 0001:0004E80D
   161 0001:0004E814   162 0001:0004E82E   159 0001:0004E83D   165 0001:0004E84E
   170 0001:0004E854   171 0001:0004E86C   172 0001:0004E878   177 0001:0004E87C
   178 0001:0004E894   179 0001:0004E8A0   184 0001:0004E8A4   185 0001:0004E8BC
   186 0001:0004E8C8   192 0001:0004E8CC   193 0001:0004E8D6   194 0001:0004E8E2
   201 0001:0004E8E4   216 0001:0004E8FC   218 0001:0004E90D   221 0001:0004E914
   222 0001:0004E91B   223 0001:0004E922   224 0001:0004E929   225 0001:0004E933
   228 0001:0004E93A   231 0001:0004E950   234 0001:0004E95F   235 0001:0004E96D
   236 0001:0004E999   238 0001:0004E9AF   239 0001:0004E9C2   241 0001:0004E9F0
   246 0001:0004EA24   247 0001:0004EA3C   248 0001:0004EA48   254 0001:0004EA4C
   257 0001:0004EA5E   258 0001:0004EA68   259 0001:0004EA74   266 0001:0004EA78
   269 0001:0004EA8A   272 0001:0004EA98   273 0001:0004EAA4   280 0001:0004EAA8
   282 0001:0004EAA9   284 0001:0004EABB   285 0001:0004EAC2   291 0001:0004EAC4
   292 0001:0004EAC9   299 0001:0004EACC   300 0001:0004EACD   301 0001:0004EADE
   306 0001:0004EAE0   308 0001:0004EAE6   311 0001:0004EAF5   312 0001:0004EB07
   313 0001:0004EB19   314 0001:0004EB2B   316 0001:0004EB3D   317 0001:0004EB44
   318 0001:0004EB4B   319 0001:0004EB52   320 0001:0004EB59   322 0001:0004EB60
   325 0001:0004EB73   329 0001:0004EB84   331 0001:0004EB87   333 0001:0004EB99
   334 0001:0004EB9E   336 0001:0004EBA1   340 0001:0004EBA4   341 0001:0004EBBE
   342 0001:0004EBD7   343 0001:0004EBE5   345 0001:0004EC24   348 0001:0004EC69
   350 0001:0004ECDC   350 0001:0004ECE3

Line numbers for Unit1(Unit1.pas) segment .text

    41 0001:0004EE64    42 0001:0004EE85    43 0001:0004EE8E    44 0001:0004EE9C
    46 0001:0004EEAB    47 0001:0004EEBC    50 0001:0004EEF6    53 0001:0004EF2B
    55 0001:0004EF39    56 0001:0004EF43    59 0001:0004EF4D    62 0001:0004EF54
    63 0001:0004EF58    64 0001:0004EF70    67 0001:0004EF7A    68 0001:0004EF83
    70 0001:0004EF8B    71 0001:0004EFA0    73 0001:0004EFAA    74 0001:0004EFBA
    75 0001:0004EFBE    76 0001:0004EFCB    77 0001:0004EFD3    78 0001:0004EFE8
    76 0001:0004EFE9    79 0001:0004EFEC    80 0001:0004F009    82 0001:0004F018
    83 0001:0004F024    84 0001:0004F03C    85 0001:0004F048    88 0001:0004F059
    89 0001:0004F06E    90 0001:0004F078    91 0001:0004F087    92 0001:0004F092
    93 0001:0004F096    94 0001:0004F0AB    96 0001:0004F0B7    97 0001:0004F0CC
    98 0001:0004F0D6    99 0001:0004F0E0   100 0001:0004F0F8   101 0001:0004F104
   102 0001:0004F110   103 0001:0004F11C   105 0001:0004F11E    90 0001:0004F11F
   106 0001:0004F126   107 0001:0004F12A   108 0001:0004F142   111 0001:0004F171
   112 0001:0004F260   112 0001:0004F267

Line numbers for Project1(F:\WindDriverMaster\EchoTestII\Project1.dpr) segment .text

    14 0001:0004F400    15 0001:0004F410    16 0001:0004F41C    18 0001:0004F434

Bound resource files

f:\programme\borland\delphi5\Lib\CONTROLS.RES
f:\programme\borland\delphi5\Lib\BUTTONS.RES
Unit6.DFM
Unit5.DFM
Unit4.DFM
Unit3.DFM
Unit2.DFM
Unit1.DFM
Project1.RES
Project1.drf


Program entry point at 0001:0004F400
